ASxxxx Assembler V01.75 + SDCC mods  (Zilog Z80 / Hitachi HD64180), page 1.



                              1         ;--- crt0.s for MSX-DOS - by Konami Man & Avelino, 11/2004
                              2         ;    Simple version: allows "void main()" only.
                              3         ;    Overhead: 6 bytes.
                              4         ;
                              5         ;    Compile programs with --code-loc 0x106 --data-loc X
                              6         ;    X=0  -> global vars will be placed immediately after code
                              7         ;    X!=0 -> global vars will be placed at address X
                              8         ;            (make sure that X>0x100+code size)
                              9 
                             10         .globl  _main
                             11 
                             12         .area _HEADER (ABS)
                             13 
   0100                      14         .org    0x0100  ;MSX-DOS .COM programs start address
                             15 
                             16         ;--- Initialize globals and jump to "main"
                             17 
   0100 C3 86 0E             18         jp init
                             19 
ASxxxx Assembler V01.75 + SDCC mods  (Zilog Z80 / Hitachi HD64180), page 2.



                             20 .include "biisi_0103.inc"
   0103 41 54 31 30 01 58     1   .db 0x41, 0x54, 0x31, 0x30, 0x01, 0x58, 0x0f, 0x1b, 0x02, 0x06, 0xfd, 0x00
        0F 1B 02 06 FD 00
   010F 25 01 2E 01 42 01     2   .db 0x25, 0x01, 0x2e, 0x01, 0x42, 0x01, 0x51, 0x01, 0x66, 0x01, 0x85, 0x01
        51 01 66 01 85 01
   011B A8 01 BF 01 E2 01     3   .db 0xa8, 0x01, 0xbf, 0x01, 0xe2, 0x01, 0xed, 0x01, 0xff, 0x01, 0x00, 0x00
        ED 01 FF 01 00 00
   0127 00 00 00 00 0D 27     4   .db 0x00, 0x00, 0x00, 0x00, 0x0d, 0x27, 0x01, 0x01, 0x00, 0x3c, 0x7c, 0x03
        01 01 00 3C 7C 03
   0133 7C 07 34 68 03 60     5   .db 0x7c, 0x07, 0x34, 0x68, 0x03, 0x60, 0x07, 0x1c, 0x58, 0x0c, 0x54, 0x0c
        07 1C 58 0C 54 0C
   013F 0D 27 01 01 00 7E     6   .db 0x0d, 0x27, 0x01, 0x01, 0x00, 0x7e, 0x26, 0x0f, 0x7c, 0x0a, 0x7c, 0x06
        26 0F 7C 0A 7C 06
   014B 78 03 38 0D 27 01     7   .db 0x78, 0x03, 0x38, 0x0d, 0x27, 0x01, 0x01, 0x00, 0x3e, 0x01, 0x36, 0x01
        01 00 3E 01 36 01
   0157 2E 01 26 01 1E 01     8   .db 0x2e, 0x01, 0x26, 0x01, 0x1e, 0x01, 0x16, 0x01, 0x0e, 0x01, 0x06, 0x01
        16 01 0E 01 06 01
   0163 0D 27 01 01 00 7E     9   .db 0x0d, 0x27, 0x01, 0x01, 0x00, 0x7e, 0x2b, 0x0c, 0x7a, 0x2a, 0x0d, 0x76
        2B 0C 7A 2A 0D 76
   016F 29 10 76 28 09 32    10   .db 0x29, 0x10, 0x76, 0x28, 0x09, 0x32, 0x27, 0x6a, 0x26, 0x09, 0x62, 0x25
        27 6A 26 09 62 25
   017B 0E 1A 24 12 23 0E    11   .db 0x0e, 0x1a, 0x24, 0x12, 0x23, 0x0e, 0x22, 0x0d, 0x27, 0x01, 0x01, 0x00
        22 0D 27 01 01 00
   0187 3E 01 3A 01 36 01    12   .db 0x3e, 0x01, 0x3a, 0x01, 0x36, 0x01, 0x32, 0x01, 0x2e, 0x01, 0x2a, 0x01
        32 01 2E 01 2A 01
   0193 26 01 22 01 1E 01    13   .db 0x26, 0x01, 0x22, 0x01, 0x1e, 0x01, 0x1a, 0x01, 0x16, 0x01, 0x12, 0x01
        1A 01 16 01 12 01
   019F 0E 01 0A 01 06 01    14   .db 0x0e, 0x01, 0x0a, 0x01, 0x06, 0x01, 0x0d, 0x27, 0x01, 0x01, 0x00, 0x3c
        0D 27 01 01 00 3C
   01AB 3C 3C 3C 3C 3C 3C    15   .db 0x3c, 0x3c, 0x3c, 0x3c, 0x3c, 0x3c, 0x3c, 0x3c, 0x3c, 0x20, 0x20, 0x20
        3C 3C 3C 20 20 20
   01B7 1C 1C 18 10 18 0D    16   .db 0x1c, 0x1c, 0x18, 0x10, 0x18, 0x0d, 0x27, 0x01, 0x01, 0x00, 0x3c, 0x7c
        27 01 01 00 3C 7C
   01C3 03 7C 07 3C 78 03    17   .db 0x03, 0x7c, 0x07, 0x3c, 0x78, 0x03, 0x74, 0x07, 0x30, 0x6c, 0x03, 0x68
        74 07 30 6C 03 68
   01CF 07 24 60 03 5C 07    18   .db 0x07, 0x24, 0x60, 0x03, 0x5c, 0x07, 0x18, 0x54, 0x03, 0x50, 0x07, 0x0c
        18 54 03 50 07 0C
   01DB 48 03 44 07 0D 27    19   .db 0x48, 0x03, 0x44, 0x07, 0x0d, 0x27, 0x01, 0x02, 0x00, 0x3c, 0x3c, 0x02
        01 02 00 3C 3C 02
   01E7 20 02 20 0D 27 01    20   .db 0x20, 0x02, 0x20, 0x0d, 0x27, 0x01, 0x01, 0x00, 0x36, 0x08, 0x32, 0x28
        01 00 36 08 32 28
   01F3 72 26 02 32 05 2E    21   .db 0x72, 0x26, 0x02, 0x32, 0x05, 0x2e, 0x04, 0x2a, 0x02, 0x0d, 0x27, 0x01
        04 2A 02 0D 27 01
   01FF 03 00 3C 3C 3C 3C    22   .db 0x03, 0x00, 0x3c, 0x3c, 0x3c, 0x3c, 0x34, 0x28, 0x34, 0x3c, 0x0d, 0x01
        34 28 34 3C 0D 01
   020B 02 40 00 00 00 C4    23   .db 0x02, 0x40, 0x00, 0x00, 0x00, 0xc4, 0x02, 0x00, 0x33, 0x09, 0xb9, 0x03
        02 00 33 09 B9 03
   0217 B9 03 00 B9 09 B9    24   .db 0xb9, 0x03, 0x00, 0xb9, 0x09, 0xb9, 0x03, 0xb9, 0x03, 0x00, 0xc6, 0x02
        03 B9 03 00 C6 02
   0223 B9 03 1E 03 00 C6    25   .db 0xb9, 0x03, 0x1e, 0x03, 0x00, 0xc6, 0x02, 0xb9, 0x03, 0x1e, 0x03, 0x00
        02 B9 03 1E 03 00
   022F C6 02 FA 02 1E 03    26   .db 0xc6, 0x02, 0xfa, 0x02, 0x1e, 0x03, 0x00, 0xc6, 0x02, 0xfa, 0x02, 0x1e
        00 C6 02 FA 02 1E
   023B 03 00 50 04 49 03    27   .db 0x03, 0x00, 0x50, 0x04, 0x49, 0x03, 0xbe, 0x03, 0x00, 0x50, 0x04, 0x49
        BE 03 00 50 04 49
   0247 03 BE 03 00 50 04    28   .db 0x03, 0xbe, 0x03, 0x00, 0x50, 0x04, 0x49, 0x03, 0xbe, 0x03, 0x00, 0x50
        49 03 BE 03 00 50
ASxxxx Assembler V01.75 + SDCC mods  (Zilog Z80 / Hitachi HD64180), page 3.



   0253 04 6C 06 84 04 00    29   .db 0x04, 0x6c, 0x06, 0x84, 0x04, 0x00, 0x0e, 0x05, 0x86, 0x07, 0x09, 0x06
        0E 05 86 07 09 06
   025F 00 BB 08 86 07 09    30   .db 0x00, 0xbb, 0x08, 0x86, 0x07, 0x09, 0x06, 0x00, 0x0e, 0x07, 0x86, 0x05
        06 00 0E 07 86 05
   026B 8B 06 00 CA 07 86    31   .db 0x8b, 0x06, 0x00, 0xca, 0x07, 0x86, 0x05, 0x45, 0x08, 0x00, 0xc6, 0x02
        05 45 08 00 C6 02
   0277 30 0A 8B 06 00 C6    32   .db 0x30, 0x0a, 0x8b, 0x06, 0x00, 0xc6, 0x02, 0x30, 0x0a, 0x93, 0x0a, 0x00
        02 30 0A 93 0A 00
   0283 D0 0A 3B 0B 34 0C    33   .db 0xd0, 0x0a, 0x3b, 0x0b, 0x34, 0x0c, 0x00, 0xd0, 0x0a, 0x3b, 0x0b, 0x34
        00 D0 0A 3B 0B 34
   028F 0C 00 D0 0A 3B 0B    34   .db 0x0c, 0x00, 0xd0, 0x0a, 0x3b, 0x0b, 0x34, 0x0c, 0x00, 0xd0, 0x0a, 0x6c
        34 0C 00 D0 0A 6C
   029B 06 34 0C 00 EC 09    35   .db 0x06, 0x34, 0x0c, 0x00, 0xec, 0x09, 0x3b, 0x0b, 0xb2, 0x0b, 0x00, 0xec
        3B 0B B2 0B 00 EC
   02A7 09 3B 0B B2 0B 00    36   .db 0x09, 0x3b, 0x0b, 0xb2, 0x0b, 0x00, 0xc6, 0x0c, 0x3b, 0x0b, 0xb2, 0x0b
        C6 0C 3B 0B B2 0B
   02B3 00 0A 0D DE 0D 5C    37   .db 0x00, 0x0a, 0x0d, 0xde, 0x0d, 0x5c, 0x0d, 0x00, 0x5a, 0x0e, 0x6f, 0x0e
        0D 00 5A 0E 6F 0E
   02BF 81 0E 01 12 02 19    38   .db 0x81, 0x0e, 0x01, 0x12, 0x02, 0x19, 0x00, 0x7c, 0xe1, 0x00, 0x00, 0x01
        00 7C E1 00 00 01
   02CB 04 3D 04 3D 02 3D    39   .db 0x04, 0x3d, 0x04, 0x3d, 0x02, 0x3d, 0x04, 0x3d, 0x04, 0x39, 0x02, 0x4b
        04 3D 04 39 02 4B
   02D7 04 4B 04 4B 02 4B    40   .db 0x04, 0x4b, 0x04, 0x4b, 0x02, 0x4b, 0x04, 0x4b, 0x04, 0x4d, 0x02, 0x4b
        04 4B 04 4D 02 4B
   02E3 04 4B 04 4B 02 4B    41   .db 0x04, 0x4b, 0x04, 0x4b, 0x02, 0x4b, 0x04, 0x4b, 0x04, 0x4d, 0x02, 0x43
        04 4B 04 4D 02 43
   02EF 04 43 04 43 02 43    42   .db 0x04, 0x43, 0x04, 0x43, 0x02, 0x43, 0x04, 0x43, 0x04, 0x39, 0x00, 0x68
        04 43 04 39 00 68
   02FB E1 00 00 02 06 29    43   .db 0xe1, 0x00, 0x00, 0x02, 0x06, 0x29, 0x06, 0x29, 0x06, 0x29, 0x06, 0x29
        06 29 06 29 06 29
   0307 06 29 06 29 06 29    44   .db 0x06, 0x29, 0x06, 0x29, 0x06, 0x29, 0x06, 0x29, 0x06, 0x29, 0x06, 0x29
        06 29 06 29 06 29
   0313 06 29 06 29 06 29    45   .db 0x06, 0x29, 0x06, 0x29, 0x06, 0x29, 0x06, 0x29, 0x06, 0x29, 0x00, 0x42
        06 29 06 29 00 42
   031F 80 00 00 02 94 60    46   .db 0x80, 0x00, 0x00, 0x02, 0x94, 0x60, 0x01, 0x06, 0x55, 0x06, 0x55, 0x06
        01 06 55 06 55 06
   032B 55 06 63 06 63 04    47   .db 0x55, 0x06, 0x63, 0x06, 0x63, 0x04, 0x63, 0x04, 0x63, 0x02, 0x65, 0x06
        63 04 63 02 65 06
   0337 63 06 63 06 63 06    48   .db 0x63, 0x06, 0x63, 0x06, 0x63, 0x06, 0x65, 0x06, 0x5b, 0x06, 0x5b, 0x04
        65 06 5B 06 5B 04
   0343 5B 04 5B 02 51 00    49   .db 0x5b, 0x04, 0x5b, 0x02, 0x51, 0x00, 0x42, 0x80, 0x00, 0x00, 0x02, 0xba
        42 80 00 00 02 BA
   034F 60 03 02 8A 60 04    50   .db 0x60, 0x03, 0x02, 0x8a, 0x60, 0x04, 0x02, 0xba, 0x60, 0x03, 0x7b, 0x02
        02 BA 60 03 7B 02
   035B 7B 7B 02 8A 60 04    51   .db 0x7b, 0x7b, 0x02, 0x8a, 0x60, 0x04, 0x02, 0x72, 0x60, 0x05, 0x02, 0x42
        02 72 60 05 02 42
   0367 00 02 BA 60 03 02    52   .db 0x00, 0x02, 0xba, 0x60, 0x03, 0x02, 0x8a, 0x60, 0x04, 0x02, 0xba, 0x60
        8A 60 04 02 BA 60
   0373 03 7B 02 7B 7B 02    53   .db 0x03, 0x7b, 0x02, 0x7b, 0x7b, 0x02, 0x8a, 0x60, 0x04, 0x02, 0x72, 0x60
        8A 60 04 02 72 60
   037F 05 02 42 00 02 BA    54   .db 0x05, 0x02, 0x42, 0x00, 0x02, 0xba, 0x60, 0x03, 0x02, 0x8a, 0x60, 0x04
        60 03 02 8A 60 04
   038B 02 BA 60 03 7B 02    55   .db 0x02, 0xba, 0x60, 0x03, 0x7b, 0x02, 0x7b, 0x7b, 0x02, 0x8a, 0x60, 0x04
        7B 7B 02 8A 60 04
   0397 02 72 60 05 02 42    56   .db 0x02, 0x72, 0x60, 0x05, 0x02, 0x42, 0x00, 0x02, 0xba, 0x60, 0x03, 0x02
        00 02 BA 60 03 02
ASxxxx Assembler V01.75 + SDCC mods  (Zilog Z80 / Hitachi HD64180), page 4.



   03A3 8A 60 04 02 BA 60    57   .db 0x8a, 0x60, 0x04, 0x02, 0xba, 0x60, 0x03, 0x7b, 0x02, 0x7b, 0x72, 0x60
        03 7B 02 7B 72 60
   03AF 05 02 8A 60 04 02    58   .db 0x05, 0x02, 0x8a, 0x60, 0x04, 0x02, 0x72, 0x60, 0x05, 0x00, 0x42, 0x80
        72 60 05 00 42 80
   03BB 00 00 00 68 E0 00    59   .db 0x00, 0x00, 0x00, 0x68, 0xe0, 0x00, 0x00, 0x02, 0x42, 0x00, 0x5a, 0x60
        00 02 42 00 5A 60
   03C7 06 02 68 60 02 42    60   .db 0x06, 0x02, 0x68, 0x60, 0x02, 0x42, 0x00, 0x5a, 0x60, 0x06, 0x02, 0x68
        00 5A 60 06 02 68
   03D3 60 02 42 00 5A 60    61   .db 0x60, 0x02, 0x42, 0x00, 0x5a, 0x60, 0x06, 0x02, 0x68, 0x60, 0x02, 0x42
        06 02 68 60 02 42
   03DF 00 56 60 06 02 68    62   .db 0x00, 0x56, 0x60, 0x06, 0x02, 0x68, 0x60, 0x02, 0x42, 0x00, 0x5a, 0x60
        60 02 42 00 5A 60
   03EB 06 02 68 60 02 42    63   .db 0x06, 0x02, 0x68, 0x60, 0x02, 0x42, 0x00, 0x5a, 0x60, 0x06, 0x02, 0x68
        00 5A 60 06 02 68
   03F7 60 02 42 00 5A 60    64   .db 0x60, 0x02, 0x42, 0x00, 0x5a, 0x60, 0x06, 0x02, 0x68, 0x60, 0x02, 0x42
        06 02 68 60 02 42
   0403 00 5C 60 06 02 68    65   .db 0x00, 0x5c, 0x60, 0x06, 0x02, 0x68, 0x60, 0x02, 0x42, 0x00, 0x5a, 0x60
        60 02 42 00 5A 60
   040F 06 02 68 60 02 42    66   .db 0x06, 0x02, 0x68, 0x60, 0x02, 0x42, 0x00, 0x5a, 0x60, 0x06, 0x02, 0x68
        00 5A 60 06 02 68
   041B 60 02 42 00 5A 60    67   .db 0x60, 0x02, 0x42, 0x00, 0x5a, 0x60, 0x06, 0x02, 0x68, 0x60, 0x02, 0x42
        06 02 68 60 02 42
   0427 00 5C 60 06 02 68    68   .db 0x00, 0x5c, 0x60, 0x06, 0x02, 0x68, 0x60, 0x02, 0x42, 0x00, 0x5c, 0x60
        60 02 42 00 5C 60
   0433 06 02 68 60 02 42    69   .db 0x06, 0x02, 0x68, 0x60, 0x02, 0x42, 0x00, 0x5c, 0x60, 0x06, 0x02, 0x68
        00 5C 60 06 02 68
   043F 60 02 42 00 5C 60    70   .db 0x60, 0x02, 0x42, 0x00, 0x5c, 0x60, 0x06, 0x02, 0x68, 0x60, 0x02, 0x42
        06 02 68 60 02 42
   044B 00 56 60 06 00 94    71   .db 0x00, 0x56, 0x60, 0x06, 0x00, 0x94, 0xe0, 0x00, 0x00, 0x07, 0x04, 0x55
        E0 00 00 07 04 55
   0457 04 55 02 55 04 55    72   .db 0x04, 0x55, 0x02, 0x55, 0x04, 0x55, 0x04, 0x51, 0x02, 0x63, 0x04, 0x63
        04 51 02 63 04 63
   0463 04 63 02 63 04 63    73   .db 0x04, 0x63, 0x02, 0x63, 0x04, 0x63, 0x04, 0x65, 0x02, 0x63, 0x04, 0x63
        04 65 02 63 04 63
   046F 04 63 02 63 04 63    74   .db 0x04, 0x63, 0x02, 0x63, 0x04, 0x63, 0x04, 0x65, 0x02, 0x5b, 0x04, 0x5b
        04 65 02 5B 04 5B
   047B 04 5B 02 5B 04 5B    75   .db 0x04, 0x5b, 0x02, 0x5b, 0x04, 0x5b, 0x04, 0x51, 0x00, 0x68, 0xe0, 0x00
        04 51 00 68 E0 00
   0487 00 02 42 00 5A 60    76   .db 0x00, 0x02, 0x42, 0x00, 0x5a, 0x60, 0x06, 0x02, 0x68, 0x60, 0x02, 0x42
        06 02 68 60 02 42
   0493 00 5A 60 06 02 68    77   .db 0x00, 0x5a, 0x60, 0x06, 0x02, 0x68, 0x60, 0x02, 0x42, 0x00, 0x5a, 0x60
        60 02 42 00 5A 60
   049F 06 02 68 60 02 42    78   .db 0x06, 0x02, 0x68, 0x60, 0x02, 0x42, 0x00, 0x5a, 0x60, 0x06, 0x02, 0x68
        00 5A 60 06 02 68
   04AB 60 02 42 00 68 60    79   .db 0x60, 0x02, 0x42, 0x00, 0x68, 0x60, 0x06, 0x02, 0x68, 0x60, 0x02, 0x42
        06 02 68 60 02 42
   04B7 00 68 60 06 02 68    80   .db 0x00, 0x68, 0x60, 0x06, 0x02, 0x68, 0x60, 0x02, 0x42, 0x00, 0x68, 0x60
        60 02 42 00 68 60
   04C3 06 02 68 60 02 42    81   .db 0x06, 0x02, 0x68, 0x60, 0x02, 0x42, 0x00, 0x6a, 0x60, 0x06, 0x02, 0x68
        00 6A 60 06 02 68
   04CF 60 02 42 00 68 60    82   .db 0x60, 0x02, 0x42, 0x00, 0x68, 0x60, 0x06, 0x02, 0x68, 0x60, 0x02, 0x42
        06 02 68 60 02 42
   04DB 00 68 60 06 02 68    83   .db 0x00, 0x68, 0x60, 0x06, 0x02, 0x68, 0x60, 0x02, 0x42, 0x00, 0x68, 0x60
        60 02 42 00 68 60
   04E7 06 02 68 60 02 42    84   .db 0x06, 0x02, 0x68, 0x60, 0x02, 0x42, 0x00, 0x6a, 0x60, 0x06, 0x02, 0x68
        00 6A 60 06 02 68
ASxxxx Assembler V01.75 + SDCC mods  (Zilog Z80 / Hitachi HD64180), page 5.



   04F3 60 02 42 00 5A 60    85   .db 0x60, 0x02, 0x42, 0x00, 0x5a, 0x60, 0x06, 0x02, 0x68, 0x60, 0x02, 0x42
        06 02 68 60 02 42
   04FF 00 5A 60 06 02 68    86   .db 0x00, 0x5a, 0x60, 0x06, 0x02, 0x68, 0x60, 0x02, 0x29, 0x29, 0x29, 0x29
        60 02 29 29 29 29
   050B 29 29 29 5A E1 00    87   .db 0x29, 0x29, 0x29, 0x5a, 0xe1, 0x00, 0x00, 0x06, 0x42, 0x00, 0x42, 0x1f
        00 06 42 00 42 1F
   0517 5A 41 42 00 42 1F    88   .db 0x5a, 0x41, 0x42, 0x00, 0x42, 0x1f, 0x5a, 0x41, 0x42, 0x00, 0x42, 0x1f
        5A 41 42 00 42 1F
   0523 5A 41 42 00 42 1F    89   .db 0x5a, 0x41, 0x42, 0x00, 0x42, 0x1f, 0x56, 0x41, 0x42, 0x00, 0x42, 0x1f
        56 41 42 00 42 1F
   052F 02 72 61 08 02 72    90   .db 0x02, 0x72, 0x61, 0x08, 0x02, 0x72, 0x4f, 0x72, 0x41, 0x02, 0x72, 0x4f
        4F 72 41 02 72 4F
   053B 72 41 02 72 4F 72    91   .db 0x72, 0x41, 0x02, 0x72, 0x4f, 0x72, 0x41, 0x02, 0x72, 0x4f, 0x8a, 0x41
        41 02 72 4F 8A 41
   0547 02 8C 40 02 5A 60    92   .db 0x02, 0x8c, 0x40, 0x02, 0x5a, 0x60, 0x06, 0x42, 0x00, 0x42, 0x1f, 0x5a
        06 42 00 42 1F 5A
   0553 41 42 00 42 1F 5A    93   .db 0x41, 0x42, 0x00, 0x42, 0x1f, 0x5a, 0x41, 0x42, 0x00, 0x42, 0x1f, 0x5a
        41 42 00 42 1F 5A
   055F 41 42 00 42 1F 56    94   .db 0x41, 0x42, 0x00, 0x42, 0x1f, 0x56, 0x41, 0x42, 0x00, 0x42, 0x1f, 0x02
        41 42 00 42 1F 02
   056B BA 61 01 02 BA 4F    95   .db 0xba, 0x61, 0x01, 0x02, 0xba, 0x4f, 0xba, 0x41, 0x02, 0xba, 0x4f, 0xba
        BA 41 02 BA 4F BA
   0577 41 BA 4F 02 BA 41    96   .db 0x41, 0xba, 0x4f, 0x02, 0xba, 0x41, 0x02, 0xba, 0x4f, 0xb6, 0x41, 0x02
        02 BA 4F B6 41 02
   0583 B6 4F 00 8A E5 00    97   .db 0xb6, 0x4f, 0x00, 0x8a, 0xe5, 0x00, 0x00, 0x03, 0x8a, 0x4f, 0x8a, 0x45
        00 03 8A 4F 8A 45
   058F 8A 4F 8A 45 8A 4F    98   .db 0x8a, 0x4f, 0x8a, 0x45, 0x8a, 0x4f, 0x8a, 0x45, 0x8a, 0x4f, 0x8a, 0x45
        8A 45 8A 4F 8A 45
   059B 8A 4F 8A 45 8A 4F    99   .db 0x8a, 0x4f, 0x8a, 0x45, 0x8a, 0x4f, 0x8a, 0x45, 0x8a, 0x4f, 0x8a, 0x45
        8A 45 8A 4F 8A 45
   05A7 8A 4F 8A 45 8A 4F   100   .db 0x8a, 0x4f, 0x8a, 0x45, 0x8a, 0x4f, 0x8a, 0x45, 0x8a, 0x4f, 0x8a, 0x45
        8A 45 8A 4F 8A 45
   05B3 8A 4F 8A 45 8A 4F   101   .db 0x8a, 0x4f, 0x8a, 0x45, 0x8a, 0x4f, 0x8a, 0x45, 0x8a, 0x4f, 0x8a, 0x45
        8A 45 8A 4F 8A 45
   05BF 8A 4F 8A 45 8A 4F   102   .db 0x8a, 0x4f, 0x8a, 0x45, 0x8a, 0x4f, 0x8a, 0x45, 0x8a, 0x4f, 0x8a, 0x45
        8A 45 8A 4F 8A 45
   05CB 8A 4F 8A 45 8A 4F   103   .db 0x8a, 0x4f, 0x8a, 0x45, 0x8a, 0x4f, 0x8a, 0x45, 0x8a, 0x4f, 0x8a, 0x45
        8A 45 8A 4F 8A 45
   05D7 8A 4F 8A 45 8A 4F   104   .db 0x8a, 0x4f, 0x8a, 0x45, 0x8a, 0x4f, 0x8a, 0x45, 0x8a, 0x4f, 0x8a, 0x45
        8A 45 8A 4F 8A 45
   05E3 8A 4F 8A 45 8A 4F   105   .db 0x8a, 0x4f, 0x8a, 0x45, 0x8a, 0x4f, 0x8a, 0x45, 0x8a, 0x4f, 0x8a, 0x45
        8A 45 8A 4F 8A 45
   05EF 8A 4F 8A 45 8A 4F   106   .db 0x8a, 0x4f, 0x8a, 0x45, 0x8a, 0x4f, 0x8a, 0x45, 0x8a, 0x4f, 0x8a, 0x45
        8A 45 8A 4F 8A 45
   05FB 8A 4F 8A 45 8A 4F   107   .db 0x8a, 0x4f, 0x8a, 0x45, 0x8a, 0x4f, 0x8a, 0x45, 0x8a, 0x4f, 0x8a, 0x45
        8A 45 8A 4F 8A 45
   0607 8A 4F 68 E0 00 00   108   .db 0x8a, 0x4f, 0x68, 0xe0, 0x00, 0x00, 0x02, 0x04, 0x42, 0x00, 0x04, 0x72
        02 04 42 00 04 72
   0613 60 09 02 68 60 02   109   .db 0x60, 0x09, 0x02, 0x68, 0x60, 0x02, 0x04, 0x42, 0x00, 0x72, 0x60, 0x09
        04 42 00 72 60 09
   061F 02 42 00 02 68 60   110   .db 0x02, 0x42, 0x00, 0x02, 0x68, 0x60, 0x02, 0x04, 0x42, 0x00, 0x04, 0x72
        02 04 42 00 04 72
   062B 60 09 02 68 60 02   111   .db 0x60, 0x09, 0x02, 0x68, 0x60, 0x02, 0x04, 0x42, 0x00, 0x72, 0x60, 0x09
        04 42 00 72 60 09
   0637 02 33 02 68 60 02   112   .db 0x02, 0x33, 0x02, 0x68, 0x60, 0x02, 0x04, 0x42, 0x00, 0x04, 0x72, 0x60
        04 42 00 04 72 60
ASxxxx Assembler V01.75 + SDCC mods  (Zilog Z80 / Hitachi HD64180), page 6.



   0643 09 02 68 60 02 04   113   .db 0x09, 0x02, 0x68, 0x60, 0x02, 0x04, 0x42, 0x00, 0x72, 0x60, 0x09, 0x02
        42 00 72 60 09 02
   064F 42 00 02 68 60 02   114   .db 0x42, 0x00, 0x02, 0x68, 0x60, 0x02, 0x02, 0x72, 0x60, 0x09, 0x42, 0x00
        02 72 60 09 42 00
   065B 04 33 02 68 60 02   115   .db 0x04, 0x33, 0x02, 0x68, 0x60, 0x02, 0x02, 0x72, 0x60, 0x09, 0x42, 0x00
        02 72 60 09 42 00
   0667 33 33 42 00 33 42   116   .db 0x33, 0x33, 0x42, 0x00, 0x33, 0x42, 0x80, 0x00, 0x00, 0x3e, 0x8a, 0x60
        80 00 00 3E 8A 60
   0673 04 06 4B 06 4B 06   117   .db 0x04, 0x06, 0x4b, 0x06, 0x4b, 0x06, 0x4b, 0x06, 0x4b, 0x02, 0x4b, 0x02
        4B 06 4B 02 4B 02
   067F 4B 02 4B 02 4B 02   118   .db 0x4b, 0x02, 0x4b, 0x02, 0x4b, 0x02, 0x4b, 0x4b, 0x4b, 0x02, 0x4b, 0x4b
        4B 4B 4B 02 4B 4B
   068B 68 E0 00 00 02 04   119   .db 0x68, 0xe0, 0x00, 0x00, 0x02, 0x04, 0x72, 0x60, 0x09, 0x68, 0x60, 0x02
        72 60 09 68 60 02
   0697 02 72 60 09 02 68   120   .db 0x02, 0x72, 0x60, 0x09, 0x02, 0x68, 0x60, 0x02, 0x04, 0x72, 0x60, 0x09
        60 02 04 72 60 09
   06A3 68 60 02 02 72 60   121   .db 0x68, 0x60, 0x02, 0x02, 0x72, 0x60, 0x09, 0x02, 0x68, 0x60, 0x02, 0x04
        09 02 68 60 02 04
   06AF 72 60 09 68 60 02   122   .db 0x72, 0x60, 0x09, 0x68, 0x60, 0x02, 0x02, 0x72, 0x60, 0x09, 0x02, 0x68
        02 72 60 09 02 68
   06BB 60 02 72 60 09 42   123   .db 0x60, 0x02, 0x72, 0x60, 0x09, 0x42, 0x00, 0x33, 0x68, 0x60, 0x02, 0x02
        00 33 68 60 02 02
   06C7 72 60 09 02 68 60   124   .db 0x72, 0x60, 0x09, 0x02, 0x68, 0x60, 0x02, 0x04, 0x72, 0x60, 0x09, 0x68
        02 04 72 60 09 68
   06D3 60 02 02 72 60 09   125   .db 0x60, 0x02, 0x02, 0x72, 0x60, 0x09, 0x02, 0x68, 0x60, 0x02, 0x04, 0x72
        02 68 60 02 04 72
   06DF 60 09 68 60 02 02   126   .db 0x60, 0x09, 0x68, 0x60, 0x02, 0x02, 0x72, 0x60, 0x09, 0x02, 0x68, 0x60
        72 60 09 02 68 60
   06EB 02 04 72 60 09 68   127   .db 0x02, 0x04, 0x72, 0x60, 0x09, 0x68, 0x60, 0x02, 0x02, 0x72, 0x60, 0x09
        60 02 02 72 60 09
   06F7 42 00 68 60 02 72   128   .db 0x42, 0x00, 0x68, 0x60, 0x02, 0x72, 0x60, 0x09, 0x42, 0x00, 0x68, 0x60
        60 09 42 00 68 60
   0703 02 72 60 09 33 68   129   .db 0x02, 0x72, 0x60, 0x09, 0x33, 0x68, 0x60, 0x02, 0x72, 0x60, 0x09, 0x5a
        60 02 72 60 09 5A
   070F E1 00 00 06 42 00   130   .db 0xe1, 0x00, 0x00, 0x06, 0x42, 0x00, 0x42, 0x1f, 0x5a, 0x41, 0x42, 0x00
        42 1F 5A 41 42 00
   071B 42 1F 5A 41 42 00   131   .db 0x42, 0x1f, 0x5a, 0x41, 0x42, 0x00, 0x42, 0x1f, 0x5a, 0x41, 0x42, 0x00
        42 1F 5A 41 42 00
   0727 42 1F 56 41 42 00   132   .db 0x42, 0x1f, 0x56, 0x41, 0x42, 0x00, 0x42, 0x1f, 0x02, 0x72, 0x61, 0x08
        42 1F 02 72 61 08
   0733 02 72 4F 72 41 02   133   .db 0x02, 0x72, 0x4f, 0x72, 0x41, 0x02, 0x72, 0x4f, 0x72, 0x41, 0x02, 0x72
        72 4F 72 41 02 72
   073F 4F 72 41 02 72 4F   134   .db 0x4f, 0x72, 0x41, 0x02, 0x72, 0x4f, 0x8a, 0x41, 0x02, 0x8c, 0x40, 0x02
        8A 41 02 8C 40 02
   074B 5A 60 06 42 00 42   135   .db 0x5a, 0x60, 0x06, 0x42, 0x00, 0x42, 0x1f, 0x5a, 0x41, 0x42, 0x00, 0x42
        1F 5A 41 42 00 42
   0757 1F 5A 41 42 00 42   136   .db 0x1f, 0x5a, 0x41, 0x42, 0x00, 0x42, 0x1f, 0x5a, 0x41, 0x42, 0x00, 0x42
        1F 5A 41 42 00 42
   0763 1F 56 41 42 00 42   137   .db 0x1f, 0x56, 0x41, 0x42, 0x00, 0x42, 0x1f, 0x02, 0x72, 0x61, 0x08, 0x02
        1F 02 72 61 08 02
   076F 72 4F 72 41 02 72   138   .db 0x72, 0x4f, 0x72, 0x41, 0x02, 0x72, 0x4f, 0x72, 0x41, 0x02, 0x72, 0x4f
        4F 72 41 02 72 4F
   077B 72 41 02 72 4F 6E   139   .db 0x72, 0x41, 0x02, 0x72, 0x4f, 0x6e, 0x41, 0x02, 0x68, 0x40, 0x00, 0x8a
        41 02 68 40 00 8A
   0787 E0 00 00 03 02 4B   140   .db 0xe0, 0x00, 0x00, 0x03, 0x02, 0x4b, 0x02, 0x4b, 0x02, 0x4b, 0x02, 0x4b
        02 4B 02 4B 02 4B
ASxxxx Assembler V01.75 + SDCC mods  (Zilog Z80 / Hitachi HD64180), page 7.



   0793 02 4B 02 4B 02 4B   141   .db 0x02, 0x4b, 0x02, 0x4b, 0x02, 0x4b, 0x02, 0x4b, 0x02, 0x4b, 0x02, 0x4b
        02 4B 02 4B 02 4B
   079F 02 4B 02 4B 02 4B   142   .db 0x02, 0x4b, 0x02, 0x4b, 0x02, 0x4b, 0x02, 0x4b, 0x02, 0x4b, 0x02, 0x4b
        02 4B 02 4B 02 4B
   07AB 02 4B 02 4B 02 4B   143   .db 0x02, 0x4b, 0x02, 0x4b, 0x02, 0x4b, 0x02, 0x4b, 0x02, 0x4b, 0x02, 0x4b
        02 4B 02 4B 02 4B
   07B7 02 4B 02 4B 02 4B   144   .db 0x02, 0x4b, 0x02, 0x4b, 0x02, 0x4b, 0x02, 0x4b, 0x02, 0x4b, 0x02, 0x4b
        02 4B 02 4B 02 4B
   07C3 02 4B 02 4B 02 4B   145   .db 0x02, 0x4b, 0x02, 0x4b, 0x02, 0x4b, 0x00, 0x5a, 0xe1, 0x00, 0x00, 0x06
        00 5A E1 00 00 06
   07CF 42 00 42 1F 5A 41   146   .db 0x42, 0x00, 0x42, 0x1f, 0x5a, 0x41, 0x42, 0x00, 0x42, 0x1f, 0x5a, 0x41
        42 00 42 1F 5A 41
   07DB 42 00 42 1F 5A 41   147   .db 0x42, 0x00, 0x42, 0x1f, 0x5a, 0x41, 0x42, 0x00, 0x42, 0x1f, 0x56, 0x41
        42 00 42 1F 56 41
   07E7 42 00 42 1F 02 72   148   .db 0x42, 0x00, 0x42, 0x1f, 0x02, 0x72, 0x61, 0x08, 0x02, 0x72, 0x4f, 0x72
        61 08 02 72 4F 72
   07F3 41 02 72 4F 72 41   149   .db 0x41, 0x02, 0x72, 0x4f, 0x72, 0x41, 0x02, 0x72, 0x4f, 0x72, 0x41, 0x02
        02 72 4F 72 41 02
   07FF 72 4F 8A 41 02 8C   150   .db 0x72, 0x4f, 0x8a, 0x41, 0x02, 0x8c, 0x40, 0x02, 0x5a, 0x60, 0x06, 0x42
        40 02 5A 60 06 42
   080B 00 42 1F 5A 41 42   151   .db 0x00, 0x42, 0x1f, 0x5a, 0x41, 0x42, 0x00, 0x42, 0x1f, 0x5a, 0x41, 0x42
        00 42 1F 5A 41 42
   0817 00 42 1F 5A 41 42   152   .db 0x00, 0x42, 0x1f, 0x5a, 0x41, 0x42, 0x00, 0x42, 0x1f, 0x56, 0x41, 0x42
        00 42 1F 56 41 42
   0823 00 42 1F 02 8A 61   153   .db 0x00, 0x42, 0x1f, 0x02, 0x8a, 0x61, 0x07, 0x04, 0xa2, 0x60, 0x01, 0x8a
        07 04 A2 60 01 8A
   082F 60 07 02 BA 60 01   154   .db 0x60, 0x07, 0x02, 0xba, 0x60, 0x01, 0x02, 0x8a, 0x60, 0x07, 0x04, 0xa2
        02 8A 60 07 04 A2
   083B 60 01 86 60 07 02   155   .db 0x60, 0x01, 0x86, 0x60, 0x07, 0x02, 0x9e, 0x60, 0x01, 0x00, 0x68, 0xe0
        9E 60 01 00 68 E0
   0847 00 00 02 04 72 60   156   .db 0x00, 0x00, 0x02, 0x04, 0x72, 0x60, 0x09, 0x68, 0x60, 0x02, 0x02, 0x72
        09 68 60 02 02 72
   0853 60 09 02 68 60 02   157   .db 0x60, 0x09, 0x02, 0x68, 0x60, 0x02, 0x04, 0x72, 0x60, 0x09, 0x68, 0x60
        04 72 60 09 68 60
   085F 02 02 72 60 09 02   158   .db 0x02, 0x02, 0x72, 0x60, 0x09, 0x02, 0x68, 0x60, 0x02, 0x04, 0x72, 0x60
        68 60 02 04 72 60
   086B 09 68 60 02 02 72   159   .db 0x09, 0x68, 0x60, 0x02, 0x02, 0x72, 0x60, 0x09, 0x02, 0x68, 0x60, 0x02
        60 09 02 68 60 02
   0877 72 60 09 42 00 33   160   .db 0x72, 0x60, 0x09, 0x42, 0x00, 0x33, 0x68, 0x60, 0x02, 0x02, 0x72, 0x60
        68 60 02 02 72 60
   0883 09 02 68 60 02 04   161   .db 0x09, 0x02, 0x68, 0x60, 0x02, 0x04, 0x72, 0x60, 0x09, 0x68, 0x60, 0x02
        72 60 09 68 60 02
   088F 02 72 60 09 02 68   162   .db 0x02, 0x72, 0x60, 0x09, 0x02, 0x68, 0x60, 0x02, 0x04, 0x72, 0x60, 0x09
        60 02 04 72 60 09
   089B 68 60 02 02 72 60   163   .db 0x68, 0x60, 0x02, 0x02, 0x72, 0x60, 0x09, 0x02, 0x68, 0x60, 0x02, 0x04
        09 02 68 60 02 04
   08A7 29 29 02 72 60 09   164   .db 0x29, 0x29, 0x02, 0x72, 0x60, 0x09, 0x02, 0x68, 0x60, 0x02, 0x04, 0x29
        02 68 60 02 04 29
   08B3 72 60 09 42 00 33   165   .db 0x72, 0x60, 0x09, 0x42, 0x00, 0x33, 0x42, 0x00, 0x5a, 0xe1, 0x00, 0x00
        42 00 5A E1 00 00
   08BF 06 42 00 42 1F 5A   166   .db 0x06, 0x42, 0x00, 0x42, 0x1f, 0x5a, 0x41, 0x42, 0x00, 0x42, 0x1f, 0x5a
        41 42 00 42 1F 5A
   08CB 41 42 00 42 1F 5A   167   .db 0x41, 0x42, 0x00, 0x42, 0x1f, 0x5a, 0x41, 0x42, 0x00, 0x42, 0x1f, 0x56
        41 42 00 42 1F 56
   08D7 41 42 00 42 1F 02   168   .db 0x41, 0x42, 0x00, 0x42, 0x1f, 0x02, 0x72, 0x61, 0x08, 0x02, 0x72, 0x4f
        72 61 08 02 72 4F
ASxxxx Assembler V01.75 + SDCC mods  (Zilog Z80 / Hitachi HD64180), page 8.



   08E3 72 41 02 72 4F 72   169   .db 0x72, 0x41, 0x02, 0x72, 0x4f, 0x72, 0x41, 0x02, 0x72, 0x4f, 0x72, 0x41
        41 02 72 4F 72 41
   08EF 02 72 4F 8A 41 02   170   .db 0x02, 0x72, 0x4f, 0x8a, 0x41, 0x02, 0x8c, 0x40, 0x02, 0x5a, 0x60, 0x06
        8C 40 02 5A 60 06
   08FB 42 00 42 1F 5A 41   171   .db 0x42, 0x00, 0x42, 0x1f, 0x5a, 0x41, 0x42, 0x00, 0x42, 0x1f, 0x5a, 0x41
        42 00 42 1F 5A 41
   0907 42 00 42 1F 5A 41   172   .db 0x42, 0x00, 0x42, 0x1f, 0x5a, 0x41, 0x42, 0x00, 0x42, 0x1f, 0x56, 0x41
        42 00 42 1F 56 41
   0913 42 00 42 1F 02 72   173   .db 0x42, 0x00, 0x42, 0x1f, 0x02, 0x72, 0x61, 0x08, 0x02, 0x72, 0x4f, 0x72
        61 08 02 72 4F 72
   091F 41 02 72 4F 72 41   174   .db 0x41, 0x02, 0x72, 0x4f, 0x72, 0x41, 0x02, 0x72, 0x4f, 0x72, 0x41, 0x02
        02 72 4F 72 41 02
   092B 72 4F 8A 41 02 86   175   .db 0x72, 0x4f, 0x8a, 0x41, 0x02, 0x86, 0x40, 0x00, 0x5a, 0xe0, 0x00, 0x00
        40 00 5A E0 00 00
   0937 0A 3E 42 80 10 00   176   .db 0x0a, 0x3e, 0x42, 0x80, 0x10, 0x00, 0x42, 0x80, 0x20, 0x00, 0x42, 0x80
        42 80 20 00 42 80
   0943 30 00 42 80 40 00   177   .db 0x30, 0x00, 0x42, 0x80, 0x40, 0x00, 0x42, 0x80, 0x50, 0x00, 0x42, 0x80
        42 80 50 00 42 80
   094F 60 00 42 80 70 00   178   .db 0x60, 0x00, 0x42, 0x80, 0x70, 0x00, 0x42, 0x80, 0x80, 0x00, 0x42, 0x80
        42 80 80 00 42 80
   095B 90 00 42 80 A0 00   179   .db 0x90, 0x00, 0x42, 0x80, 0xa0, 0x00, 0x42, 0x80, 0xb0, 0x00, 0x42, 0x80
        42 80 B0 00 42 80
   0967 C0 00 42 80 D0 00   180   .db 0xc0, 0x00, 0x42, 0x80, 0xd0, 0x00, 0x42, 0x80, 0xe0, 0x00, 0x42, 0x80
        42 80 E0 00 42 80
   0973 F0 00 42 80 00 01   181   .db 0xf0, 0x00, 0x42, 0x80, 0x00, 0x01, 0x42, 0x80, 0x10, 0x01, 0x42, 0x80
        42 80 10 01 42 80
   097F 20 01 42 80 30 01   182   .db 0x20, 0x01, 0x42, 0x80, 0x30, 0x01, 0x42, 0x80, 0x40, 0x01, 0x42, 0x80
        42 80 40 01 42 80
   098B 50 01 42 80 60 01   183   .db 0x50, 0x01, 0x42, 0x80, 0x60, 0x01, 0x42, 0x80, 0x70, 0x01, 0x42, 0x80
        42 80 70 01 42 80
   0997 80 01 42 80 90 01   184   .db 0x80, 0x01, 0x42, 0x80, 0x90, 0x01, 0x42, 0x80, 0xa0, 0x01, 0x42, 0x80
        42 80 A0 01 42 80
   09A3 B0 01 42 80 C0 01   185   .db 0xb0, 0x01, 0x42, 0x80, 0xc0, 0x01, 0x42, 0x80, 0xd0, 0x01, 0x42, 0x80
        42 80 D0 01 42 80
   09AF E0 01 42 80 F0 01   186   .db 0xe0, 0x01, 0x42, 0x80, 0xf0, 0x01, 0x42, 0x80, 0x00, 0x02, 0x42, 0xe1
        42 80 00 02 42 E1
   09BB 00 00 0A 06 42 03   187   .db 0x00, 0x00, 0x0a, 0x06, 0x42, 0x03, 0x06, 0x42, 0x05, 0x06, 0x42, 0x07
        06 42 05 06 42 07
   09C7 06 42 09 06 42 0B   188   .db 0x06, 0x42, 0x09, 0x06, 0x42, 0x0b, 0x06, 0x42, 0x0d, 0x06, 0x42, 0x0f
        06 42 0D 06 42 0F
   09D3 06 42 11 06 42 13   189   .db 0x06, 0x42, 0x11, 0x06, 0x42, 0x13, 0x06, 0x42, 0x15, 0x06, 0x42, 0x17
        06 42 15 06 42 17
   09DF 06 42 19 06 42 1B   190   .db 0x06, 0x42, 0x19, 0x06, 0x42, 0x1b, 0x06, 0x42, 0x1d, 0x06, 0x42, 0x1f
        06 42 1D 06 42 1F
   09EB 00 8A E0 00 00 08   191   .db 0x00, 0x8a, 0xe0, 0x00, 0x00, 0x08, 0x51, 0x59, 0x4b, 0x51, 0x59, 0x4b
        51 59 4B 51 59 4B
   09F7 51 59 4B 51 59 4B   192   .db 0x51, 0x59, 0x4b, 0x51, 0x59, 0x4b, 0x51, 0x59, 0x51, 0x47, 0x4d, 0x55
        51 59 51 47 4D 55
   0A03 47 4D 55 47 4D 55   193   .db 0x47, 0x4d, 0x55, 0x47, 0x4d, 0x55, 0x47, 0x4d, 0x55, 0x47, 0x4d, 0x55
        47 4D 55 47 4D 55
   0A0F 4D 4B 55 59 4B 55   194   .db 0x4d, 0x4b, 0x55, 0x59, 0x4b, 0x55, 0x59, 0x4b, 0x55, 0x59, 0x4b, 0x55
        59 4B 55 59 4B 55
   0A1B 59 4B 55 59 55 51   195   .db 0x59, 0x4b, 0x55, 0x59, 0x55, 0x51, 0x5b, 0x5f, 0x51, 0x5b, 0x5f, 0x51
        5B 5F 51 5B 5F 51
   0A27 5B 5F 51 5B 5F 51   196   .db 0x5b, 0x5f, 0x51, 0x5b, 0x5f, 0x51, 0x5b, 0x5f, 0x51, 0x8a, 0xe5, 0x00
        5B 5F 51 8A E5 00
ASxxxx Assembler V01.75 + SDCC mods  (Zilog Z80 / Hitachi HD64180), page 9.



   0A33 00 03 02 8A 40 02   197   .db 0x00, 0x03, 0x02, 0x8a, 0x40, 0x02, 0x8a, 0x40, 0x02, 0x8a, 0x40, 0x02
        8A 40 02 8A 40 02
   0A3F 8A 40 02 8A 40 02   198   .db 0x8a, 0x40, 0x02, 0x8a, 0x40, 0x02, 0x8a, 0x40, 0x02, 0x8a, 0x40, 0x02
        8A 40 02 8A 40 02
   0A4B 8A 40 02 8A 40 02   199   .db 0x8a, 0x40, 0x02, 0x8a, 0x40, 0x02, 0x8a, 0x40, 0x02, 0x8a, 0x40, 0x02
        8A 40 02 8A 40 02
   0A57 8A 40 02 8A 40 02   200   .db 0x8a, 0x40, 0x02, 0x8a, 0x40, 0x02, 0x8a, 0x40, 0x02, 0x8a, 0x40, 0x02
        8A 40 02 8A 40 02
   0A63 8A 40 02 8A 40 02   201   .db 0x8a, 0x40, 0x02, 0x8a, 0x40, 0x02, 0x8a, 0x40, 0x02, 0x8a, 0x40, 0x02
        8A 40 02 8A 40 02
   0A6F 8A 40 02 8A 40 02   202   .db 0x8a, 0x40, 0x02, 0x8a, 0x40, 0x02, 0x8a, 0x40, 0x02, 0x8a, 0x40, 0x02
        8A 40 02 8A 40 02
   0A7B 8A 40 02 8A 40 02   203   .db 0x8a, 0x40, 0x02, 0x8a, 0x40, 0x02, 0x8a, 0x40, 0x02, 0x8a, 0x40, 0x02
        8A 40 02 8A 40 02
   0A87 8A 40 02 8A 40 02   204   .db 0x8a, 0x40, 0x02, 0x8a, 0x40, 0x02, 0x8a, 0x40, 0x02, 0x8a, 0x40, 0x00
        8A 40 02 8A 40 00
   0A93 68 E0 00 00 02 06   205   .db 0x68, 0xe0, 0x00, 0x00, 0x02, 0x06, 0x29, 0x06, 0x29, 0x06, 0x29, 0x06
        29 06 29 06 29 06
   0A9F 29 06 29 06 29 06   206   .db 0x29, 0x06, 0x29, 0x06, 0x29, 0x06, 0x29, 0x06, 0x42, 0x00, 0x06, 0x42
        29 06 42 00 06 42
   0AAB 00 06 42 00 06 42   207   .db 0x00, 0x06, 0x42, 0x00, 0x06, 0x42, 0x00, 0x06, 0x29, 0x04, 0x29, 0x02
        00 06 29 04 29 02
   0AB7 8A 60 09 68 60 02   208   .db 0x8a, 0x60, 0x09, 0x68, 0x60, 0x02, 0x02, 0x8a, 0x60, 0x09, 0x4b, 0x68
        02 8A 60 09 4B 68
   0AC3 60 02 8A 60 09 4B   209   .db 0x60, 0x02, 0x8a, 0x60, 0x09, 0x4b, 0x68, 0x60, 0x02, 0x8a, 0x60, 0x09
        68 60 02 8A 60 09
   0ACF 4B BA E1 00 00 01   210   .db 0x4b, 0xba, 0xe1, 0x00, 0x00, 0x01, 0x02, 0xba, 0x4f, 0xba, 0x41, 0x02
        02 BA 4F BA 41 02
   0ADB BA 4F BA 41 BA 4F   211   .db 0xba, 0x4f, 0xba, 0x41, 0xba, 0x4f, 0x02, 0xba, 0x41, 0x02, 0xba, 0x4f
        02 BA 41 02 BA 4F
   0AE7 BA 41 02 BC 40 02   212   .db 0xba, 0x41, 0x02, 0xbc, 0x40, 0x02, 0xb6, 0x40, 0x02, 0xb6, 0x4f, 0xb6
        B6 40 02 B6 4F B6
   0AF3 41 02 B6 4F B6 41   213   .db 0x41, 0x02, 0xb6, 0x4f, 0xb6, 0x41, 0xb6, 0x4f, 0x02, 0xb6, 0x41, 0x02
        B6 4F 02 B6 41 02
   0AFF B6 4F B6 41 02 B2   214   .db 0xb6, 0x4f, 0xb6, 0x41, 0x02, 0xb2, 0x40, 0x02, 0xba, 0x40, 0x02, 0xba
        40 02 BA 40 02 BA
   0B0B 4F BA 41 02 BA 4F   215   .db 0x4f, 0xba, 0x41, 0x02, 0xba, 0x4f, 0xba, 0x41, 0xba, 0x4f, 0x02, 0xba
        BA 41 BA 4F 02 BA
   0B17 41 02 BA 4F BA 41   216   .db 0x41, 0x02, 0xba, 0x4f, 0xba, 0x41, 0x02, 0xbc, 0x40, 0x02, 0xc0, 0x40
        02 BC 40 02 C0 40
   0B23 02 C0 4F C0 41 02   217   .db 0x02, 0xc0, 0x4f, 0xc0, 0x41, 0x02, 0xc0, 0x4f, 0xc0, 0x41, 0xc0, 0x4f
        C0 4F C0 41 C0 4F
   0B2F 02 C0 41 02 C0 4F   218   .db 0x02, 0xc0, 0x41, 0x02, 0xc0, 0x4f, 0xc0, 0x41, 0x02, 0xc8, 0x40, 0x00
        C0 41 02 C8 40 00
   0B3B 42 80 00 00 02 8A   219   .db 0x42, 0x80, 0x00, 0x00, 0x02, 0x8a, 0x60, 0x05, 0x02, 0x8a, 0x60, 0x04
        60 05 02 8A 60 04
   0B47 02 8A 60 05 BA 60   220   .db 0x02, 0x8a, 0x60, 0x05, 0xba, 0x60, 0x03, 0x02, 0x7b, 0x8a, 0x60, 0x05
        03 02 7B 8A 60 05
   0B53 02 8A 60 04 02 8A   221   .db 0x02, 0x8a, 0x60, 0x04, 0x02, 0x8a, 0x60, 0x05, 0x02, 0x42, 0x00, 0x02
        60 05 02 42 00 02
   0B5F 4B 02 8A 60 04 02   222   .db 0x4b, 0x02, 0x8a, 0x60, 0x04, 0x02, 0x8a, 0x60, 0x05, 0xba, 0x60, 0x03
        8A 60 05 BA 60 03
   0B6B 02 7B 8A 60 05 02   223   .db 0x02, 0x7b, 0x8a, 0x60, 0x05, 0x02, 0x8a, 0x60, 0x04, 0x02, 0x8a, 0x60
        8A 60 04 02 8A 60
   0B77 05 02 42 00 02 4B   224   .db 0x05, 0x02, 0x42, 0x00, 0x02, 0x4b, 0x02, 0x8a, 0x60, 0x04, 0x02, 0x8a
        02 8A 60 04 02 8A
ASxxxx Assembler V01.75 + SDCC mods  (Zilog Z80 / Hitachi HD64180), page 10.



   0B83 60 05 BA 60 03 04   225   .db 0x60, 0x05, 0xba, 0x60, 0x03, 0x04, 0x8a, 0x60, 0x05, 0x02, 0x8a, 0x60
        8A 60 05 02 8A 60
   0B8F 04 02 8A 60 05 02   226   .db 0x04, 0x02, 0x8a, 0x60, 0x05, 0x02, 0x42, 0x00, 0x02, 0x4b, 0x02, 0x8a
        42 00 02 4B 02 8A
   0B9B 60 04 02 8A 60 05   227   .db 0x60, 0x04, 0x02, 0x8a, 0x60, 0x05, 0xba, 0x60, 0x03, 0x02, 0x7b, 0x8a
        BA 60 03 02 7B 8A
   0BA7 60 05 02 8A 60 04   228   .db 0x60, 0x05, 0x02, 0x8a, 0x60, 0x04, 0x02, 0x8a, 0x60, 0x05, 0x00, 0x68
        02 8A 60 05 00 68
   0BB3 E0 00 00 02 02 5A   229   .db 0xe0, 0x00, 0x00, 0x02, 0x02, 0x5a, 0x60, 0x06, 0x02, 0x68, 0x60, 0x02
        60 06 02 68 60 02
   0BBF 02 5A 60 06 02 68   230   .db 0x02, 0x5a, 0x60, 0x06, 0x02, 0x68, 0x60, 0x02, 0x02, 0x5a, 0x60, 0x06
        60 02 02 5A 60 06
   0BCB 02 68 60 02 02 50   231   .db 0x02, 0x68, 0x60, 0x02, 0x02, 0x50, 0x60, 0x06, 0x02, 0x68, 0x60, 0x02
        60 06 02 68 60 02
   0BD7 02 56 60 06 02 68   232   .db 0x02, 0x56, 0x60, 0x06, 0x02, 0x68, 0x60, 0x02, 0x02, 0x56, 0x60, 0x06
        60 02 02 56 60 06
   0BE3 02 68 60 02 02 56   233   .db 0x02, 0x68, 0x60, 0x02, 0x02, 0x56, 0x60, 0x06, 0x02, 0x68, 0x60, 0x02
        60 06 02 68 60 02
   0BEF 02 4C 60 06 02 68   234   .db 0x02, 0x4c, 0x60, 0x06, 0x02, 0x68, 0x60, 0x02, 0x02, 0x5a, 0x60, 0x06
        60 02 02 5A 60 06
   0BFB 02 68 60 02 02 5A   235   .db 0x02, 0x68, 0x60, 0x02, 0x02, 0x5a, 0x60, 0x06, 0x02, 0x68, 0x60, 0x02
        60 06 02 68 60 02
   0C07 02 5A 60 06 02 68   236   .db 0x02, 0x5a, 0x60, 0x06, 0x02, 0x68, 0x60, 0x02, 0x02, 0x50, 0x60, 0x06
        60 02 02 50 60 06
   0C13 02 68 60 02 02 60   237   .db 0x02, 0x68, 0x60, 0x02, 0x02, 0x60, 0x60, 0x06, 0x02, 0x68, 0x60, 0x02
        60 06 02 68 60 02
   0C1F 02 60 60 06 02 68   238   .db 0x02, 0x60, 0x60, 0x06, 0x02, 0x68, 0x60, 0x02, 0x02, 0x60, 0x60, 0x06
        60 02 02 60 60 06
   0C2B 02 68 60 02 02 6E   239   .db 0x02, 0x68, 0x60, 0x02, 0x02, 0x6e, 0x60, 0x06, 0x00, 0x68, 0xe0, 0x00
        60 06 00 68 E0 00
   0C37 00 02 42 00 5A 60   240   .db 0x00, 0x02, 0x42, 0x00, 0x5a, 0x60, 0x06, 0x02, 0x68, 0x60, 0x02, 0x42
        06 02 68 60 02 42
   0C43 00 5A 60 06 02 68   241   .db 0x00, 0x5a, 0x60, 0x06, 0x02, 0x68, 0x60, 0x02, 0x42, 0x00, 0x5a, 0x60
        60 02 42 00 5A 60
   0C4F 06 02 68 60 02 42   242   .db 0x06, 0x02, 0x68, 0x60, 0x02, 0x42, 0x00, 0x5c, 0x60, 0x06, 0x02, 0x68
        00 5C 60 06 02 68
   0C5B 60 02 42 00 56 60   243   .db 0x60, 0x02, 0x42, 0x00, 0x56, 0x60, 0x06, 0x02, 0x68, 0x60, 0x02, 0x42
        06 02 68 60 02 42
   0C67 00 56 60 06 02 68   244   .db 0x00, 0x56, 0x60, 0x06, 0x02, 0x68, 0x60, 0x02, 0x42, 0x00, 0x56, 0x60
        60 02 42 00 56 60
   0C73 06 02 68 60 02 42   245   .db 0x06, 0x02, 0x68, 0x60, 0x02, 0x42, 0x00, 0x52, 0x60, 0x06, 0x02, 0x68
        00 52 60 06 02 68
   0C7F 60 02 42 00 5A 60   246   .db 0x60, 0x02, 0x42, 0x00, 0x5a, 0x60, 0x06, 0x02, 0x68, 0x60, 0x02, 0x42
        06 02 68 60 02 42
   0C8B 00 5A 60 06 02 68   247   .db 0x00, 0x5a, 0x60, 0x06, 0x02, 0x68, 0x60, 0x02, 0x42, 0x00, 0x5a, 0x60
        60 02 42 00 5A 60
   0C97 06 02 68 60 02 42   248   .db 0x06, 0x02, 0x68, 0x60, 0x02, 0x42, 0x00, 0x5c, 0x60, 0x06, 0x02, 0x68
        00 5C 60 06 02 68
   0CA3 60 02 42 00 60 60   249   .db 0x60, 0x02, 0x42, 0x00, 0x60, 0x60, 0x06, 0x02, 0x68, 0x60, 0x02, 0x42
        06 02 68 60 02 42
   0CAF 00 60 60 06 02 68   250   .db 0x00, 0x60, 0x60, 0x06, 0x02, 0x68, 0x60, 0x02, 0x42, 0x00, 0x60, 0x60
        60 02 42 00 60 60
   0CBB 06 02 68 60 02 42   251   .db 0x06, 0x02, 0x68, 0x60, 0x02, 0x42, 0x00, 0x68, 0x60, 0x06, 0x00, 0xa2
        00 68 60 06 00 A2
   0CC7 E0 00 00 08 69 71   252   .db 0xe0, 0x00, 0x00, 0x08, 0x69, 0x71, 0x63, 0x69, 0x71, 0x63, 0x69, 0x71
        63 69 71 63 69 71
ASxxxx Assembler V01.75 + SDCC mods  (Zilog Z80 / Hitachi HD64180), page 11.



   0CD3 63 69 71 63 69 71   253   .db 0x63, 0x69, 0x71, 0x63, 0x69, 0x71, 0x69, 0x5f, 0x65, 0x6d, 0x5f, 0x65
        69 5F 65 6D 5F 65
   0CDF 6D 5F 65 6D 5F 65   254   .db 0x6d, 0x5f, 0x65, 0x6d, 0x5f, 0x65, 0x6d, 0x5f, 0x65, 0x6d, 0x65, 0x63
        6D 5F 65 6D 65 63
   0CEB 6D 71 63 6D 71 63   255   .db 0x6d, 0x71, 0x63, 0x6d, 0x71, 0x63, 0x6d, 0x71, 0x63, 0x6d, 0x71, 0x63
        6D 71 63 6D 71 63
   0CF7 6D 71 6D 69 73 77   256   .db 0x6d, 0x71, 0x6d, 0x69, 0x73, 0x77, 0x69, 0x73, 0x77, 0x69, 0x73, 0x77
        69 73 77 69 73 77
   0D03 69 73 77 69 73 77   257   .db 0x69, 0x73, 0x77, 0x69, 0x73, 0x77, 0x69, 0xa2, 0xe0, 0x00, 0x00, 0x08
        69 A2 E0 00 00 08
   0D0F 69 71 63 69 71 63   258   .db 0x69, 0x71, 0x63, 0x69, 0x71, 0x63, 0x69, 0x71, 0x63, 0x69, 0x71, 0x63
        69 71 63 69 71 63
   0D1B 69 71 69 9E 43 65   259   .db 0x69, 0x71, 0x69, 0x9e, 0x43, 0x65, 0x6d, 0x5f, 0x65, 0x6d, 0x5f, 0x65
        6D 5F 65 6D 5F 65
   0D27 AC 45 5F 65 6D 5F   260   .db 0xac, 0x45, 0x5f, 0x65, 0x6d, 0x5f, 0x65, 0x6d, 0x65, 0xa2, 0x47, 0x6d
        65 6D 65 A2 47 6D
   0D33 71 63 AC 49 71 63   261   .db 0x71, 0x63, 0xac, 0x49, 0x71, 0x63, 0x6d, 0xb0, 0x4b, 0x63, 0xac, 0x4d
        6D B0 4B 63 AC 4D
   0D3F 71 A2 4F 6D B0 51   262   .db 0x71, 0xa2, 0x4f, 0x6d, 0xb0, 0x51, 0x6d, 0xa8, 0x53, 0x73, 0xb6, 0x55
        6D A8 53 73 B6 55
   0D4B 69 B2 57 77 A8 59   263   .db 0x69, 0xb2, 0x57, 0x77, 0xa8, 0x59, 0x73, 0xb6, 0x5b, 0x69, 0x73, 0x77
        73 B6 5B 69 73 77
   0D57 A8 5D 73 77 69 68   264   .db 0xa8, 0x5d, 0x73, 0x77, 0x69, 0x68, 0xe0, 0x00, 0x00, 0x02, 0x02, 0x5a
        E0 00 00 02 02 5A
   0D63 60 06 02 68 60 02   265   .db 0x60, 0x06, 0x02, 0x68, 0x60, 0x02, 0x02, 0x5a, 0x60, 0x06, 0x02, 0x68
        02 5A 60 06 02 68
   0D6F 60 02 02 5A 60 06   266   .db 0x60, 0x02, 0x02, 0x5a, 0x60, 0x06, 0x02, 0x68, 0x60, 0x02, 0x02, 0x50
        02 68 60 02 02 50
   0D7B 60 06 02 68 63 02   267   .db 0x60, 0x06, 0x02, 0x68, 0x63, 0x02, 0x02, 0x56, 0x60, 0x06, 0x02, 0x68
        02 56 60 06 02 68
   0D87 60 02 02 56 60 06   268   .db 0x60, 0x02, 0x02, 0x56, 0x60, 0x06, 0x02, 0x68, 0x65, 0x02, 0x02, 0x56
        02 68 65 02 02 56
   0D93 60 06 02 68 60 02   269   .db 0x60, 0x06, 0x02, 0x68, 0x60, 0x02, 0x02, 0x4c, 0x60, 0x06, 0x02, 0x68
        02 4C 60 06 02 68
   0D9F 67 02 02 5A 60 06   270   .db 0x67, 0x02, 0x02, 0x5a, 0x60, 0x06, 0x02, 0x68, 0x69, 0x02, 0x02, 0x5a
        02 68 69 02 02 5A
   0DAB 60 06 02 68 6B 02   271   .db 0x60, 0x06, 0x02, 0x68, 0x6b, 0x02, 0x02, 0x5a, 0x6d, 0x06, 0x02, 0x68
        02 5A 6D 06 02 68
   0DB7 6F 02 02 50 71 06   272   .db 0x6f, 0x02, 0x02, 0x50, 0x71, 0x06, 0x02, 0x68, 0x73, 0x02, 0x02, 0x60
        02 68 73 02 02 60
   0DC3 75 06 02 68 77 02   273   .db 0x75, 0x06, 0x02, 0x68, 0x77, 0x02, 0x02, 0x60, 0x79, 0x06, 0x02, 0x68
        02 60 79 06 02 68
   0DCF 7B 02 02 60 60 06   274   .db 0x7b, 0x02, 0x02, 0x60, 0x60, 0x06, 0x02, 0x68, 0x7d, 0x02, 0x02, 0x6e
        02 68 7D 02 02 6E
   0DDB 60 06 00 42 80 00   275   .db 0x60, 0x06, 0x00, 0x42, 0x80, 0x00, 0x00, 0x02, 0x8a, 0x60, 0x05, 0x02
        00 02 8A 60 05 02
   0DE7 8A 60 04 02 8A 60   276   .db 0x8a, 0x60, 0x04, 0x02, 0x8a, 0x60, 0x05, 0xba, 0x60, 0x03, 0x02, 0x7b
        05 BA 60 03 02 7B
   0DF3 8A 60 05 02 8A 60   277   .db 0x8a, 0x60, 0x05, 0x02, 0x8a, 0x60, 0x04, 0x02, 0x8a, 0x60, 0x05, 0x02
        04 02 8A 60 05 02
   0DFF 42 03 02 4B 02 8A   278   .db 0x42, 0x03, 0x02, 0x4b, 0x02, 0x8a, 0x60, 0x04, 0x02, 0x8a, 0x60, 0x05
        60 04 02 8A 60 05
   0E0B BA 60 03 42 05 7B   279   .db 0xba, 0x60, 0x03, 0x42, 0x05, 0x7b, 0x8a, 0x60, 0x05, 0x02, 0x8a, 0x60
        8A 60 05 02 8A 60
   0E17 04 02 8A 60 05 02   280   .db 0x04, 0x02, 0x8a, 0x60, 0x05, 0x02, 0x42, 0x07, 0x02, 0x4b, 0x02, 0x8a
        42 07 02 4B 02 8A
ASxxxx Assembler V01.75 + SDCC mods  (Zilog Z80 / Hitachi HD64180), page 12.



   0E23 69 04 02 8A 60 05   281   .db 0x69, 0x04, 0x02, 0x8a, 0x60, 0x05, 0xba, 0x60, 0x03, 0x42, 0x0b, 0x02
        BA 60 03 42 0B 02
   0E2F 8A 6D 05 02 8A 6F   282   .db 0x8a, 0x6d, 0x05, 0x02, 0x8a, 0x6f, 0x04, 0x02, 0x8a, 0x71, 0x05, 0x02
        04 02 8A 71 05 02
   0E3B 42 13 02 8A 55 02   283   .db 0x42, 0x13, 0x02, 0x8a, 0x55, 0x02, 0x8a, 0x77, 0x04, 0x02, 0x8a, 0x79
        8A 77 04 02 8A 79
   0E47 05 BA 60 03 42 1B   284   .db 0x05, 0xba, 0x60, 0x03, 0x42, 0x1b, 0x7b, 0x8a, 0x60, 0x05, 0x02, 0x8a
        7B 8A 60 05 02 8A
   0E53 7D 04 02 8A 60 05   285   .db 0x7d, 0x04, 0x02, 0x8a, 0x60, 0x05, 0x00, 0x9e, 0xe1, 0x00, 0x00, 0x06
        00 9E E1 00 00 06
   0E5F 04 5B 04 51 04 59   286   .db 0x04, 0x5b, 0x04, 0x51, 0x04, 0x59, 0x04, 0x42, 0x00, 0x04, 0x42, 0x00
        04 42 00 04 42 00
   0E6B 04 42 00 00 42 80   287   .db 0x04, 0x42, 0x00, 0x00, 0x42, 0x80, 0x00, 0x00, 0x02, 0x9e, 0x6f, 0x06
        00 00 02 9E 6F 06
   0E77 04 9A 40 04 90 40   288   .db 0x04, 0x9a, 0x40, 0x04, 0x90, 0x40, 0x04, 0x98, 0x40, 0x00, 0x42, 0x80
        04 98 40 00 42 80
   0E83 00 00 00            289   .db 0x00, 0x00, 0x00
ASxxxx Assembler V01.75 + SDCC mods  (Zilog Z80 / Hitachi HD64180), page 13.



                             21 
   0E86 CD 02 00             22 init:   call gsinit
   0E89 C3 00 00             23         jp   __pre_main
                             24 
                             25         ;--- Program code and data (global vars) start here
                             26 
                             27         ;* Place data after program code, and data init code after data
                             28 
                             29         .area   _CODE
                             30 
   0000                      31 __pre_main:
   0000 D5                   32         push de
   0001 11 00 00             33         ld de,#_HEAP_start
   0004 ED 53 00 00          34         ld (_heap_top),de
   0008 D1                   35         pop de
   0009 C3 00 00             36         jp _main
                             37 
                             38         .area   _DATA
                             39 
   0000                      40 _heap_top::
   0000 00 00                41         .dw 0
                             42 
                             43 gsinit: .area   _GSINIT
                             44        
                             45         .area   _GSFINAL
   0000 C9                   46         ret
                             47 
                             48         ;* These doesn't seem to be necessary... (?)
                             49 
                             50         ;.area  _OVERLAY
                             51         ;.area  _HOME
                             52         ;.area  _BSS
                             53 
                             54         .area   _HEAP
                             55 
   0000                      56 _HEAP_start::
ASxxxx Assembler V01.75 + SDCC mods  (Zilog Z80 / Hitachi HD64180), page 14.

Symbol Table

  5 _HEAP_start                                                    0000 GR
  0 __pre_main                                                     0000 R
  2 _heap_top                                                      0000 GR
    _main                                                          **** GX
  2 gsinit                                                         0002 R
  1 init                                                           0E86 R

ASxxxx Assembler V01.75 + SDCC mods  (Zilog Z80 / Hitachi HD64180), page 15.

Area Table

   0 _CODE                                                          size    C   flags 0
   1 _HEADER                                                        size  E8C   flags 8
   2 _DATA                                                          size    2   flags 0
   3 _GSINIT                                                        size    0   flags 0
   4 _GSFINAL                                                       size    1   flags 0
   5 _HEAP                                                          size    0   flags 0
