ASxxxx Assembler V01.75 + SDCC mods  (Zilog Z80 / Hitachi HD64180), page 1.



                              1         ;--- crt0.s for MSX-DOS - by Konami Man & Avelino, 11/2004
                              2         ;    Simple version: allows "void main()" only.
                              3         ;    Overhead: 6 bytes.
                              4         ;
                              5         ;    Compile programs with --code-loc 0x106 --data-loc X
                              6         ;    X=0  -> global vars will be placed immediately after code
                              7         ;    X!=0 -> global vars will be placed at address X
                              8         ;            (make sure that X>0x100+code size)
                              9 
                             10         .globl  _main
                             11 
                             12         .area _HEADER (ABS)
                             13 
   0100                      14         .org    0x0100  ;MSX-DOS .COM programs start address
                             15 
                             16         ;--- Initialize globals and jump to "main"
                             17 
   0100 C3 A1 10             18         jp init
                             19 
ASxxxx Assembler V01.75 + SDCC mods  (Zilog Z80 / Hitachi HD64180), page 2.



                             20 .include "biisi_0103.inc"
   0103 41 54 31 30 01 58     1   .db 0x41, 0x54, 0x31, 0x30, 0x01, 0x58, 0x0f, 0x1b, 0x02, 0x06, 0x3a, 0x01
        0F 1B 02 06 3A 01
   010F 2B 01 34 01 48 01     2   .db 0x2b, 0x01, 0x34, 0x01, 0x48, 0x01, 0x57, 0x01, 0x6c, 0x01, 0x8b, 0x01
        57 01 6C 01 8B 01
   011B AE 01 C5 01 E8 01     3   .db 0xae, 0x01, 0xc5, 0x01, 0xe8, 0x01, 0xf3, 0x01, 0x05, 0x02, 0x12, 0x02
        F3 01 05 02 12 02
   0127 1C 02 35 02 00 00     4   .db 0x1c, 0x02, 0x35, 0x02, 0x00, 0x00, 0x00, 0x00, 0x00, 0x00, 0x0d, 0x2d
        00 00 00 00 0D 2D
   0133 01 01 00 3C 7C 03     5   .db 0x01, 0x01, 0x00, 0x3c, 0x7c, 0x03, 0x7c, 0x07, 0x34, 0x68, 0x03, 0x60
        7C 07 34 68 03 60
   013F 07 1C 58 0C 54 0C     6   .db 0x07, 0x1c, 0x58, 0x0c, 0x54, 0x0c, 0x0d, 0x2d, 0x01, 0x01, 0x00, 0x7e
        0D 2D 01 01 00 7E
   014B 26 0F 7C 0A 7C 06     7   .db 0x26, 0x0f, 0x7c, 0x0a, 0x7c, 0x06, 0x78, 0x03, 0x38, 0x0d, 0x2d, 0x01
        78 03 38 0D 2D 01
   0157 01 00 3E 01 36 01     8   .db 0x01, 0x00, 0x3e, 0x01, 0x36, 0x01, 0x2e, 0x01, 0x26, 0x01, 0x1e, 0x01
        2E 01 26 01 1E 01
   0163 16 01 0E 01 06 01     9   .db 0x16, 0x01, 0x0e, 0x01, 0x06, 0x01, 0x0d, 0x2d, 0x01, 0x01, 0x00, 0x7e
        0D 2D 01 01 00 7E
   016F 2B 0C 7A 2A 0D 76    10   .db 0x2b, 0x0c, 0x7a, 0x2a, 0x0d, 0x76, 0x29, 0x10, 0x76, 0x28, 0x09, 0x32
        29 10 76 28 09 32
   017B 27 6A 26 09 62 25    11   .db 0x27, 0x6a, 0x26, 0x09, 0x62, 0x25, 0x0e, 0x1a, 0x24, 0x12, 0x23, 0x0e
        0E 1A 24 12 23 0E
   0187 22 0D 2D 01 01 00    12   .db 0x22, 0x0d, 0x2d, 0x01, 0x01, 0x00, 0x3e, 0x01, 0x3a, 0x01, 0x36, 0x01
        3E 01 3A 01 36 01
   0193 32 01 2E 01 2A 01    13   .db 0x32, 0x01, 0x2e, 0x01, 0x2a, 0x01, 0x26, 0x01, 0x22, 0x01, 0x1e, 0x01
        26 01 22 01 1E 01
   019F 1A 01 16 01 12 01    14   .db 0x1a, 0x01, 0x16, 0x01, 0x12, 0x01, 0x0e, 0x01, 0x0a, 0x01, 0x06, 0x01
        0E 01 0A 01 06 01
   01AB 0D 2D 01 01 00 3C    15   .db 0x0d, 0x2d, 0x01, 0x01, 0x00, 0x3c, 0x3c, 0x3c, 0x3c, 0x3c, 0x3c, 0x3c
        3C 3C 3C 3C 3C 3C
   01B7 3C 3C 3C 20 20 20    16   .db 0x3c, 0x3c, 0x3c, 0x20, 0x20, 0x20, 0x1c, 0x1c, 0x18, 0x10, 0x18, 0x0d
        1C 1C 18 10 18 0D
   01C3 2D 01 01 00 3C 7C    17   .db 0x2d, 0x01, 0x01, 0x00, 0x3c, 0x7c, 0x03, 0x7c, 0x07, 0x3c, 0x78, 0x03
        03 7C 07 3C 78 03
   01CF 74 07 30 6C 03 68    18   .db 0x74, 0x07, 0x30, 0x6c, 0x03, 0x68, 0x07, 0x24, 0x60, 0x03, 0x5c, 0x07
        07 24 60 03 5C 07
   01DB 18 54 03 50 07 0C    19   .db 0x18, 0x54, 0x03, 0x50, 0x07, 0x0c, 0x48, 0x03, 0x44, 0x07, 0x0d, 0x2d
        48 03 44 07 0D 2D
   01E7 01 02 00 3C 3C 02    20   .db 0x01, 0x02, 0x00, 0x3c, 0x3c, 0x02, 0x20, 0x02, 0x20, 0x0d, 0x2d, 0x01
        20 02 20 0D 2D 01
   01F3 01 00 36 08 32 28    21   .db 0x01, 0x00, 0x36, 0x08, 0x32, 0x28, 0x72, 0x26, 0x02, 0x32, 0x05, 0x2e
        72 26 02 32 05 2E
   01FF 04 2A 02 0D 2D 01    22   .db 0x04, 0x2a, 0x02, 0x0d, 0x2d, 0x01, 0x03, 0x00, 0x3c, 0x3c, 0x3c, 0x3c
        03 00 3C 3C 3C 3C
   020B 34 28 34 3C 0D 07    23   .db 0x34, 0x28, 0x34, 0x3c, 0x0d, 0x07, 0x02, 0x03, 0xfe, 0x05, 0x28, 0x25
        02 03 FE 05 28 25
   0217 28 0C 0D 14 02 01    24   .db 0x28, 0x0c, 0x0d, 0x14, 0x02, 0x01, 0x00, 0x3c, 0x38, 0x34, 0x30, 0x2c
        00 3C 38 34 30 2C
   0223 28 A4 FF FF A4 FE    25   .db 0x28, 0xa4, 0xff, 0xff, 0xa4, 0xfe, 0xff, 0xa4, 0xff, 0xff, 0x24, 0x24
        FF A4 FF FF 24 24
   022F 24 24 24 0D 24 02    26   .db 0x24, 0x24, 0x24, 0x0d, 0x24, 0x02, 0x01, 0x00, 0x3c, 0x7c, 0x02, 0x7c
        01 00 3C 7C 02 7C
   023B 07 34 68 02 60 07    27   .db 0x07, 0x34, 0x68, 0x02, 0x60, 0x07, 0x1c, 0x58, 0x0c, 0x54, 0x0c, 0x0d
        1C 58 0C 54 0C 0D
   0247 2D 01 40 00 00 00    28   .db 0x2d, 0x01, 0x40, 0x00, 0x00, 0x00, 0x0f, 0x03, 0x00, 0x7e, 0x09, 0x04
        0F 03 00 7E 09 04
ASxxxx Assembler V01.75 + SDCC mods  (Zilog Z80 / Hitachi HD64180), page 3.



   0253 04 04 04 00 04 0A    29   .db 0x04, 0x04, 0x04, 0x00, 0x04, 0x0a, 0x04, 0x04, 0x04, 0x04, 0x00, 0x11
        04 04 04 04 00 11
   025F 03 04 04 69 03 00    30   .db 0x03, 0x04, 0x04, 0x69, 0x03, 0x00, 0x11, 0x03, 0x04, 0x04, 0x69, 0x03
        11 03 04 04 69 03
   026B 00 11 03 45 03 69    31   .db 0x00, 0x11, 0x03, 0x45, 0x03, 0x69, 0x03, 0x00, 0x11, 0x03, 0x45, 0x03
        03 00 11 03 45 03
   0277 69 03 00 9B 04 94    32   .db 0x69, 0x03, 0x00, 0x9b, 0x04, 0x94, 0x03, 0x09, 0x04, 0x00, 0x9b, 0x04
        03 09 04 00 9B 04
   0283 94 03 09 04 00 9B    33   .db 0x94, 0x03, 0x09, 0x04, 0x00, 0x9b, 0x04, 0x94, 0x03, 0x09, 0x04, 0x00
        04 94 03 09 04 00
   028F 9B 04 B7 06 CF 04    34   .db 0x9b, 0x04, 0xb7, 0x06, 0xcf, 0x04, 0x00, 0x59, 0x05, 0xd1, 0x07, 0x54
        00 59 05 D1 07 54
   029B 06 00 06 09 D1 07    35   .db 0x06, 0x00, 0x06, 0x09, 0xd1, 0x07, 0x54, 0x06, 0x00, 0x59, 0x07, 0xd1
        54 06 00 59 07 D1
   02A7 05 D6 06 00 15 08    36   .db 0x05, 0xd6, 0x06, 0x00, 0x15, 0x08, 0xd1, 0x05, 0x90, 0x08, 0x00, 0x11
        D1 05 90 08 00 11
   02B3 03 7B 0A D6 06 00    37   .db 0x03, 0x7b, 0x0a, 0xd6, 0x06, 0x00, 0x11, 0x03, 0x7b, 0x0a, 0xde, 0x0a
        11 03 7B 0A DE 0A
   02BF 00 1B 0B 86 0B 7F    38   .db 0x00, 0x1b, 0x0b, 0x86, 0x0b, 0x7f, 0x0c, 0x00, 0x1b, 0x0b, 0x86, 0x0b
        0C 00 1B 0B 86 0B
   02CB 7F 0C 00 1B 0B 86    39   .db 0x7f, 0x0c, 0x00, 0x1b, 0x0b, 0x86, 0x0b, 0x7f, 0x0c, 0x00, 0x1b, 0x0b
        0B 7F 0C 00 1B 0B
   02D7 B7 06 7F 0C 00 37    40   .db 0xb7, 0x06, 0x7f, 0x0c, 0x00, 0x37, 0x0a, 0x86, 0x0b, 0xfd, 0x0b, 0x00
        0A 86 0B FD 0B 00
   02E3 11 0D E9 0D 6B 0D    41   .db 0x11, 0x0d, 0xe9, 0x0d, 0x6b, 0x0d, 0x00, 0x6a, 0x0e, 0x02, 0x0f, 0x10
        00 6A 0E 02 0F 10
   02EF 0F 00 6A 0E 02 0F    42   .db 0x0f, 0x00, 0x6a, 0x0e, 0x02, 0x0f, 0x5b, 0x0f, 0x00, 0x6a, 0x0e, 0x02
        5B 0F 00 6A 0E 02
   02FB 0F 15 0F 00 6A 0E    43   .db 0x0f, 0x15, 0x0f, 0x00, 0x6a, 0x0e, 0x02, 0x0f, 0x15, 0x0f, 0x00, 0x20
        02 0F 15 0F 00 20
   0307 10 62 0E B3 0F 01    44   .db 0x10, 0x62, 0x0e, 0xb3, 0x0f, 0x01, 0x4f, 0x02, 0x19, 0x00, 0x7c, 0xe1
        4F 02 19 00 7C E1
   0313 00 00 01 04 3D 04    45   .db 0x00, 0x00, 0x01, 0x04, 0x3d, 0x04, 0x3d, 0x02, 0x3d, 0x04, 0x3d, 0x04
        3D 02 3D 04 3D 04
   031F 39 02 4B 04 4B 04    46   .db 0x39, 0x02, 0x4b, 0x04, 0x4b, 0x04, 0x4b, 0x02, 0x4b, 0x04, 0x4b, 0x04
        4B 02 4B 04 4B 04
   032B 4D 02 4B 04 4B 04    47   .db 0x4d, 0x02, 0x4b, 0x04, 0x4b, 0x04, 0x4b, 0x02, 0x4b, 0x04, 0x4b, 0x04
        4B 02 4B 04 4B 04
   0337 4D 02 43 04 43 04    48   .db 0x4d, 0x02, 0x43, 0x04, 0x43, 0x04, 0x43, 0x02, 0x43, 0x04, 0x43, 0x04
        43 02 43 04 43 04
   0343 39 00 68 E1 00 00    49   .db 0x39, 0x00, 0x68, 0xe1, 0x00, 0x00, 0x02, 0x06, 0x29, 0x06, 0x29, 0x06
        02 06 29 06 29 06
   034F 29 06 29 06 29 06    50   .db 0x29, 0x06, 0x29, 0x06, 0x29, 0x06, 0x29, 0x06, 0x29, 0x06, 0x29, 0x06
        29 06 29 06 29 06
   035B 29 06 29 06 29 06    51   .db 0x29, 0x06, 0x29, 0x06, 0x29, 0x06, 0x29, 0x06, 0x29, 0x06, 0x29, 0x06
        29 06 29 06 29 06
   0367 29 00 42 80 00 00    52   .db 0x29, 0x00, 0x42, 0x80, 0x00, 0x00, 0x02, 0x94, 0x60, 0x01, 0x06, 0x55
        02 94 60 01 06 55
   0373 06 55 06 55 06 63    53   .db 0x06, 0x55, 0x06, 0x55, 0x06, 0x63, 0x06, 0x63, 0x04, 0x63, 0x04, 0x63
        06 63 04 63 04 63
   037F 02 65 06 63 06 63    54   .db 0x02, 0x65, 0x06, 0x63, 0x06, 0x63, 0x06, 0x63, 0x06, 0x65, 0x06, 0x5b
        06 63 06 65 06 5B
   038B 06 5B 04 5B 04 5B    55   .db 0x06, 0x5b, 0x04, 0x5b, 0x04, 0x5b, 0x02, 0x51, 0x00, 0x42, 0x80, 0x00
        02 51 00 42 80 00
   0397 00 02 BA 60 03 02    56   .db 0x00, 0x02, 0xba, 0x60, 0x03, 0x02, 0x8a, 0x60, 0x04, 0x02, 0xba, 0x60
        8A 60 04 02 BA 60
ASxxxx Assembler V01.75 + SDCC mods  (Zilog Z80 / Hitachi HD64180), page 4.



   03A3 03 7B 02 7B 7B 02    57   .db 0x03, 0x7b, 0x02, 0x7b, 0x7b, 0x02, 0x8a, 0x60, 0x04, 0x02, 0x72, 0x60
        8A 60 04 02 72 60
   03AF 05 02 42 00 02 BA    58   .db 0x05, 0x02, 0x42, 0x00, 0x02, 0xba, 0x60, 0x03, 0x02, 0x8a, 0x60, 0x04
        60 03 02 8A 60 04
   03BB 02 BA 60 03 7B 02    59   .db 0x02, 0xba, 0x60, 0x03, 0x7b, 0x02, 0x7b, 0x7b, 0x02, 0x8a, 0x60, 0x04
        7B 7B 02 8A 60 04
   03C7 02 72 60 05 02 42    60   .db 0x02, 0x72, 0x60, 0x05, 0x02, 0x42, 0x00, 0x02, 0xba, 0x60, 0x03, 0x02
        00 02 BA 60 03 02
   03D3 8A 60 04 02 BA 60    61   .db 0x8a, 0x60, 0x04, 0x02, 0xba, 0x60, 0x03, 0x7b, 0x02, 0x7b, 0x7b, 0x02
        03 7B 02 7B 7B 02
   03DF 8A 60 04 02 72 60    62   .db 0x8a, 0x60, 0x04, 0x02, 0x72, 0x60, 0x05, 0x02, 0x42, 0x00, 0x02, 0xba
        05 02 42 00 02 BA
   03EB 60 03 02 8A 60 04    63   .db 0x60, 0x03, 0x02, 0x8a, 0x60, 0x04, 0x02, 0xba, 0x60, 0x03, 0x7b, 0x02
        02 BA 60 03 7B 02
   03F7 7B 72 60 05 02 8A    64   .db 0x7b, 0x72, 0x60, 0x05, 0x02, 0x8a, 0x60, 0x04, 0x02, 0x72, 0x60, 0x05
        60 04 02 72 60 05
   0403 00 42 80 00 00 00    65   .db 0x00, 0x42, 0x80, 0x00, 0x00, 0x00, 0x68, 0xe0, 0x00, 0x00, 0x02, 0x42
        68 E0 00 00 02 42
   040F 00 5A 60 06 02 68    66   .db 0x00, 0x5a, 0x60, 0x06, 0x02, 0x68, 0x60, 0x02, 0x42, 0x00, 0x5a, 0x60
        60 02 42 00 5A 60
   041B 06 02 68 60 02 42    67   .db 0x06, 0x02, 0x68, 0x60, 0x02, 0x42, 0x00, 0x5a, 0x60, 0x06, 0x02, 0x68
        00 5A 60 06 02 68
   0427 60 02 42 00 56 60    68   .db 0x60, 0x02, 0x42, 0x00, 0x56, 0x60, 0x06, 0x02, 0x68, 0x60, 0x02, 0x42
        06 02 68 60 02 42
   0433 00 5A 60 06 02 68    69   .db 0x00, 0x5a, 0x60, 0x06, 0x02, 0x68, 0x60, 0x02, 0x42, 0x00, 0x5a, 0x60
        60 02 42 00 5A 60
   043F 06 02 68 60 02 42    70   .db 0x06, 0x02, 0x68, 0x60, 0x02, 0x42, 0x00, 0x5a, 0x60, 0x06, 0x02, 0x68
        00 5A 60 06 02 68
   044B 60 02 42 00 5C 60    71   .db 0x60, 0x02, 0x42, 0x00, 0x5c, 0x60, 0x06, 0x02, 0x68, 0x60, 0x02, 0x42
        06 02 68 60 02 42
   0457 00 5A 60 06 02 68    72   .db 0x00, 0x5a, 0x60, 0x06, 0x02, 0x68, 0x60, 0x02, 0x42, 0x00, 0x5a, 0x60
        60 02 42 00 5A 60
   0463 06 02 68 60 02 42    73   .db 0x06, 0x02, 0x68, 0x60, 0x02, 0x42, 0x00, 0x5a, 0x60, 0x06, 0x02, 0x68
        00 5A 60 06 02 68
   046F 60 02 42 00 5C 60    74   .db 0x60, 0x02, 0x42, 0x00, 0x5c, 0x60, 0x06, 0x02, 0x68, 0x60, 0x02, 0x42
        06 02 68 60 02 42
   047B 00 5C 60 06 02 68    75   .db 0x00, 0x5c, 0x60, 0x06, 0x02, 0x68, 0x60, 0x02, 0x42, 0x00, 0x5c, 0x60
        60 02 42 00 5C 60
   0487 06 02 68 60 02 42    76   .db 0x06, 0x02, 0x68, 0x60, 0x02, 0x42, 0x00, 0x5c, 0x60, 0x06, 0x02, 0x68
        00 5C 60 06 02 68
   0493 60 02 42 00 56 60    77   .db 0x60, 0x02, 0x42, 0x00, 0x56, 0x60, 0x06, 0x00, 0x94, 0xe0, 0x00, 0x00
        06 00 94 E0 00 00
   049F 07 04 55 04 55 02    78   .db 0x07, 0x04, 0x55, 0x04, 0x55, 0x02, 0x55, 0x04, 0x55, 0x04, 0x51, 0x02
        55 04 55 04 51 02
   04AB 63 04 63 04 63 02    79   .db 0x63, 0x04, 0x63, 0x04, 0x63, 0x02, 0x63, 0x04, 0x63, 0x04, 0x65, 0x02
        63 04 63 04 65 02
   04B7 63 04 63 04 63 02    80   .db 0x63, 0x04, 0x63, 0x04, 0x63, 0x02, 0x63, 0x04, 0x63, 0x04, 0x65, 0x02
        63 04 63 04 65 02
   04C3 5B 04 5B 04 5B 02    81   .db 0x5b, 0x04, 0x5b, 0x04, 0x5b, 0x02, 0x5b, 0x04, 0x5b, 0x04, 0x51, 0x00
        5B 04 5B 04 51 00
   04CF 68 E0 00 00 02 42    82   .db 0x68, 0xe0, 0x00, 0x00, 0x02, 0x42, 0x00, 0x5a, 0x60, 0x06, 0x02, 0x68
        00 5A 60 06 02 68
   04DB 60 02 42 00 5A 60    83   .db 0x60, 0x02, 0x42, 0x00, 0x5a, 0x60, 0x06, 0x02, 0x68, 0x60, 0x02, 0x42
        06 02 68 60 02 42
   04E7 00 5A 60 06 02 68    84   .db 0x00, 0x5a, 0x60, 0x06, 0x02, 0x68, 0x60, 0x02, 0x42, 0x00, 0x5a, 0x60
        60 02 42 00 5A 60
ASxxxx Assembler V01.75 + SDCC mods  (Zilog Z80 / Hitachi HD64180), page 5.



   04F3 06 02 68 60 02 42    85   .db 0x06, 0x02, 0x68, 0x60, 0x02, 0x42, 0x00, 0x68, 0x60, 0x06, 0x02, 0x68
        00 68 60 06 02 68
   04FF 60 02 42 00 68 60    86   .db 0x60, 0x02, 0x42, 0x00, 0x68, 0x60, 0x06, 0x02, 0x68, 0x60, 0x02, 0x42
        06 02 68 60 02 42
   050B 00 68 60 06 02 68    87   .db 0x00, 0x68, 0x60, 0x06, 0x02, 0x68, 0x60, 0x02, 0x42, 0x00, 0x6a, 0x60
        60 02 42 00 6A 60
   0517 06 02 68 60 02 42    88   .db 0x06, 0x02, 0x68, 0x60, 0x02, 0x42, 0x00, 0x68, 0x60, 0x06, 0x02, 0x68
        00 68 60 06 02 68
   0523 60 02 42 00 68 60    89   .db 0x60, 0x02, 0x42, 0x00, 0x68, 0x60, 0x06, 0x02, 0x68, 0x60, 0x02, 0x42
        06 02 68 60 02 42
   052F 00 68 60 06 02 68    90   .db 0x00, 0x68, 0x60, 0x06, 0x02, 0x68, 0x60, 0x02, 0x42, 0x00, 0x6a, 0x60
        60 02 42 00 6A 60
   053B 06 02 68 60 02 42    91   .db 0x06, 0x02, 0x68, 0x60, 0x02, 0x42, 0x00, 0x5a, 0x60, 0x06, 0x02, 0x68
        00 5A 60 06 02 68
   0547 60 02 42 00 5A 60    92   .db 0x60, 0x02, 0x42, 0x00, 0x5a, 0x60, 0x06, 0x02, 0x68, 0x60, 0x02, 0x29
        06 02 68 60 02 29
   0553 29 29 29 29 29 29    93   .db 0x29, 0x29, 0x29, 0x29, 0x29, 0x29, 0x5a, 0xe1, 0x00, 0x00, 0x06, 0x42
        5A E1 00 00 06 42
   055F 00 42 1F 5A 41 42    94   .db 0x00, 0x42, 0x1f, 0x5a, 0x41, 0x42, 0x00, 0x42, 0x1f, 0x5a, 0x41, 0x42
        00 42 1F 5A 41 42
   056B 00 42 1F 5A 41 42    95   .db 0x00, 0x42, 0x1f, 0x5a, 0x41, 0x42, 0x00, 0x42, 0x1f, 0x56, 0x41, 0x42
        00 42 1F 56 41 42
   0577 00 42 1F 02 72 61    96   .db 0x00, 0x42, 0x1f, 0x02, 0x72, 0x61, 0x08, 0x02, 0x72, 0x4f, 0x72, 0x41
        08 02 72 4F 72 41
   0583 02 72 4F 72 41 02    97   .db 0x02, 0x72, 0x4f, 0x72, 0x41, 0x02, 0x72, 0x4f, 0x72, 0x41, 0x02, 0x72
        72 4F 72 41 02 72
   058F 4F 8A 41 02 8C 40    98   .db 0x4f, 0x8a, 0x41, 0x02, 0x8c, 0x40, 0x02, 0x5a, 0x60, 0x06, 0x42, 0x00
        02 5A 60 06 42 00
   059B 42 1F 5A 41 42 00    99   .db 0x42, 0x1f, 0x5a, 0x41, 0x42, 0x00, 0x42, 0x1f, 0x5a, 0x41, 0x42, 0x00
        42 1F 5A 41 42 00
   05A7 42 1F 5A 41 42 00   100   .db 0x42, 0x1f, 0x5a, 0x41, 0x42, 0x00, 0x42, 0x1f, 0x56, 0x41, 0x42, 0x00
        42 1F 56 41 42 00
   05B3 42 1F 02 BA 61 01   101   .db 0x42, 0x1f, 0x02, 0xba, 0x61, 0x01, 0x02, 0xba, 0x4f, 0xba, 0x41, 0x02
        02 BA 4F BA 41 02
   05BF BA 4F BA 41 BA 4F   102   .db 0xba, 0x4f, 0xba, 0x41, 0xba, 0x4f, 0x02, 0xba, 0x41, 0x02, 0xba, 0x4f
        02 BA 41 02 BA 4F
   05CB B6 41 02 B6 4F 00   103   .db 0xb6, 0x41, 0x02, 0xb6, 0x4f, 0x00, 0x8a, 0xe5, 0x00, 0x00, 0x03, 0x8a
        8A E5 00 00 03 8A
   05D7 4F 8A 45 8A 4F 8A   104   .db 0x4f, 0x8a, 0x45, 0x8a, 0x4f, 0x8a, 0x45, 0x8a, 0x4f, 0x8a, 0x45, 0x8a
        45 8A 4F 8A 45 8A
   05E3 4F 8A 45 8A 4F 8A   105   .db 0x4f, 0x8a, 0x45, 0x8a, 0x4f, 0x8a, 0x45, 0x8a, 0x4f, 0x8a, 0x45, 0x8a
        45 8A 4F 8A 45 8A
   05EF 4F 8A 45 8A 4F 8A   106   .db 0x4f, 0x8a, 0x45, 0x8a, 0x4f, 0x8a, 0x45, 0x8a, 0x4f, 0x8a, 0x45, 0x8a
        45 8A 4F 8A 45 8A
   05FB 4F 8A 45 8A 4F 8A   107   .db 0x4f, 0x8a, 0x45, 0x8a, 0x4f, 0x8a, 0x45, 0x8a, 0x4f, 0x8a, 0x45, 0x8a
        45 8A 4F 8A 45 8A
   0607 4F 8A 45 8A 4F 8A   108   .db 0x4f, 0x8a, 0x45, 0x8a, 0x4f, 0x8a, 0x45, 0x8a, 0x4f, 0x8a, 0x45, 0x8a
        45 8A 4F 8A 45 8A
   0613 4F 8A 45 8A 4F 8A   109   .db 0x4f, 0x8a, 0x45, 0x8a, 0x4f, 0x8a, 0x45, 0x8a, 0x4f, 0x8a, 0x45, 0x8a
        45 8A 4F 8A 45 8A
   061F 4F 8A 45 8A 4F 8A   110   .db 0x4f, 0x8a, 0x45, 0x8a, 0x4f, 0x8a, 0x45, 0x8a, 0x4f, 0x8a, 0x45, 0x8a
        45 8A 4F 8A 45 8A
   062B 4F 8A 45 8A 4F 8A   111   .db 0x4f, 0x8a, 0x45, 0x8a, 0x4f, 0x8a, 0x45, 0x8a, 0x4f, 0x8a, 0x45, 0x8a
        45 8A 4F 8A 45 8A
   0637 4F 8A 45 8A 4F 8A   112   .db 0x4f, 0x8a, 0x45, 0x8a, 0x4f, 0x8a, 0x45, 0x8a, 0x4f, 0x8a, 0x45, 0x8a
        45 8A 4F 8A 45 8A
ASxxxx Assembler V01.75 + SDCC mods  (Zilog Z80 / Hitachi HD64180), page 6.



   0643 4F 8A 45 8A 4F 8A   113   .db 0x4f, 0x8a, 0x45, 0x8a, 0x4f, 0x8a, 0x45, 0x8a, 0x4f, 0x8a, 0x45, 0x8a
        45 8A 4F 8A 45 8A
   064F 4F 8A 45 8A 4F 68   114   .db 0x4f, 0x8a, 0x45, 0x8a, 0x4f, 0x68, 0xe0, 0x00, 0x00, 0x02, 0x04, 0x42
        E0 00 00 02 04 42
   065B 00 04 72 60 09 02   115   .db 0x00, 0x04, 0x72, 0x60, 0x09, 0x02, 0x68, 0x60, 0x02, 0x04, 0x42, 0x00
        68 60 02 04 42 00
   0667 72 60 09 02 42 00   116   .db 0x72, 0x60, 0x09, 0x02, 0x42, 0x00, 0x02, 0x68, 0x60, 0x02, 0x04, 0x42
        02 68 60 02 04 42
   0673 00 04 72 60 09 02   117   .db 0x00, 0x04, 0x72, 0x60, 0x09, 0x02, 0x68, 0x60, 0x02, 0x04, 0x42, 0x00
        68 60 02 04 42 00
   067F 72 60 09 02 33 02   118   .db 0x72, 0x60, 0x09, 0x02, 0x33, 0x02, 0x68, 0x60, 0x02, 0x04, 0x42, 0x00
        68 60 02 04 42 00
   068B 04 72 60 09 02 68   119   .db 0x04, 0x72, 0x60, 0x09, 0x02, 0x68, 0x60, 0x02, 0x04, 0x42, 0x00, 0x72
        60 02 04 42 00 72
   0697 60 09 02 42 00 02   120   .db 0x60, 0x09, 0x02, 0x42, 0x00, 0x02, 0x68, 0x60, 0x02, 0x02, 0x72, 0x60
        68 60 02 02 72 60
   06A3 09 42 00 04 33 02   121   .db 0x09, 0x42, 0x00, 0x04, 0x33, 0x02, 0x68, 0x60, 0x02, 0x02, 0x72, 0x60
        68 60 02 02 72 60
   06AF 09 42 00 33 33 42   122   .db 0x09, 0x42, 0x00, 0x33, 0x33, 0x42, 0x00, 0x33, 0x42, 0x80, 0x00, 0x00
        00 33 42 80 00 00
   06BB 3E 8A 60 04 06 4B   123   .db 0x3e, 0x8a, 0x60, 0x04, 0x06, 0x4b, 0x06, 0x4b, 0x06, 0x4b, 0x06, 0x4b
        06 4B 06 4B 06 4B
   06C7 02 4B 02 4B 02 4B   124   .db 0x02, 0x4b, 0x02, 0x4b, 0x02, 0x4b, 0x02, 0x4b, 0x02, 0x4b, 0x4b, 0x4b
        02 4B 02 4B 4B 4B
   06D3 02 4B 4B 68 E0 00   125   .db 0x02, 0x4b, 0x4b, 0x68, 0xe0, 0x00, 0x00, 0x02, 0x04, 0x72, 0x60, 0x09
        00 02 04 72 60 09
   06DF 68 60 02 02 72 60   126   .db 0x68, 0x60, 0x02, 0x02, 0x72, 0x60, 0x09, 0x02, 0x68, 0x60, 0x02, 0x04
        09 02 68 60 02 04
   06EB 72 60 09 68 60 02   127   .db 0x72, 0x60, 0x09, 0x68, 0x60, 0x02, 0x02, 0x72, 0x60, 0x09, 0x02, 0x68
        02 72 60 09 02 68
   06F7 60 02 04 72 60 09   128   .db 0x60, 0x02, 0x04, 0x72, 0x60, 0x09, 0x68, 0x60, 0x02, 0x02, 0x72, 0x60
        68 60 02 02 72 60
   0703 09 02 68 60 02 72   129   .db 0x09, 0x02, 0x68, 0x60, 0x02, 0x72, 0x60, 0x09, 0x42, 0x00, 0x33, 0x68
        60 09 42 00 33 68
   070F 60 02 02 72 60 09   130   .db 0x60, 0x02, 0x02, 0x72, 0x60, 0x09, 0x02, 0x68, 0x60, 0x02, 0x04, 0x72
        02 68 60 02 04 72
   071B 60 09 68 60 02 02   131   .db 0x60, 0x09, 0x68, 0x60, 0x02, 0x02, 0x72, 0x60, 0x09, 0x02, 0x68, 0x60
        72 60 09 02 68 60
   0727 02 04 72 60 09 68   132   .db 0x02, 0x04, 0x72, 0x60, 0x09, 0x68, 0x60, 0x02, 0x02, 0x72, 0x60, 0x09
        60 02 02 72 60 09
   0733 02 68 60 02 04 72   133   .db 0x02, 0x68, 0x60, 0x02, 0x04, 0x72, 0x60, 0x09, 0x68, 0x60, 0x02, 0x02
        60 09 68 60 02 02
   073F 72 60 09 42 00 68   134   .db 0x72, 0x60, 0x09, 0x42, 0x00, 0x68, 0x60, 0x02, 0x72, 0x60, 0x09, 0x42
        60 02 72 60 09 42
   074B 00 68 60 02 72 60   135   .db 0x00, 0x68, 0x60, 0x02, 0x72, 0x60, 0x09, 0x33, 0x68, 0x60, 0x02, 0x72
        09 33 68 60 02 72
   0757 60 09 5A E1 00 00   136   .db 0x60, 0x09, 0x5a, 0xe1, 0x00, 0x00, 0x06, 0x42, 0x00, 0x42, 0x1f, 0x5a
        06 42 00 42 1F 5A
   0763 41 42 00 42 1F 5A   137   .db 0x41, 0x42, 0x00, 0x42, 0x1f, 0x5a, 0x41, 0x42, 0x00, 0x42, 0x1f, 0x5a
        41 42 00 42 1F 5A
   076F 41 42 00 42 1F 56   138   .db 0x41, 0x42, 0x00, 0x42, 0x1f, 0x56, 0x41, 0x42, 0x00, 0x42, 0x1f, 0x02
        41 42 00 42 1F 02
   077B 72 61 08 02 72 4F   139   .db 0x72, 0x61, 0x08, 0x02, 0x72, 0x4f, 0x72, 0x41, 0x02, 0x72, 0x4f, 0x72
        72 41 02 72 4F 72
   0787 41 02 72 4F 72 41   140   .db 0x41, 0x02, 0x72, 0x4f, 0x72, 0x41, 0x02, 0x72, 0x4f, 0x8a, 0x41, 0x02
        02 72 4F 8A 41 02
ASxxxx Assembler V01.75 + SDCC mods  (Zilog Z80 / Hitachi HD64180), page 7.



   0793 8C 40 02 5A 60 06   141   .db 0x8c, 0x40, 0x02, 0x5a, 0x60, 0x06, 0x42, 0x00, 0x42, 0x1f, 0x5a, 0x41
        42 00 42 1F 5A 41
   079F 42 00 42 1F 5A 41   142   .db 0x42, 0x00, 0x42, 0x1f, 0x5a, 0x41, 0x42, 0x00, 0x42, 0x1f, 0x5a, 0x41
        42 00 42 1F 5A 41
   07AB 42 00 42 1F 56 41   143   .db 0x42, 0x00, 0x42, 0x1f, 0x56, 0x41, 0x42, 0x00, 0x42, 0x1f, 0x02, 0x72
        42 00 42 1F 02 72
   07B7 61 08 02 72 4F 72   144   .db 0x61, 0x08, 0x02, 0x72, 0x4f, 0x72, 0x41, 0x02, 0x72, 0x4f, 0x72, 0x41
        41 02 72 4F 72 41
   07C3 02 72 4F 72 41 02   145   .db 0x02, 0x72, 0x4f, 0x72, 0x41, 0x02, 0x72, 0x4f, 0x6e, 0x41, 0x02, 0x68
        72 4F 6E 41 02 68
   07CF 40 00 8A E0 00 00   146   .db 0x40, 0x00, 0x8a, 0xe0, 0x00, 0x00, 0x03, 0x02, 0x4b, 0x02, 0x4b, 0x02
        03 02 4B 02 4B 02
   07DB 4B 02 4B 02 4B 02   147   .db 0x4b, 0x02, 0x4b, 0x02, 0x4b, 0x02, 0x4b, 0x02, 0x4b, 0x02, 0x4b, 0x02
        4B 02 4B 02 4B 02
   07E7 4B 02 4B 02 4B 02   148   .db 0x4b, 0x02, 0x4b, 0x02, 0x4b, 0x02, 0x4b, 0x02, 0x4b, 0x02, 0x4b, 0x02
        4B 02 4B 02 4B 02
   07F3 4B 02 4B 02 4B 02   149   .db 0x4b, 0x02, 0x4b, 0x02, 0x4b, 0x02, 0x4b, 0x02, 0x4b, 0x02, 0x4b, 0x02
        4B 02 4B 02 4B 02
   07FF 4B 02 4B 02 4B 02   150   .db 0x4b, 0x02, 0x4b, 0x02, 0x4b, 0x02, 0x4b, 0x02, 0x4b, 0x02, 0x4b, 0x02
        4B 02 4B 02 4B 02
   080B 4B 02 4B 02 4B 02   151   .db 0x4b, 0x02, 0x4b, 0x02, 0x4b, 0x02, 0x4b, 0x02, 0x4b, 0x00, 0x5a, 0xe1
        4B 02 4B 00 5A E1
   0817 00 00 06 42 00 42   152   .db 0x00, 0x00, 0x06, 0x42, 0x00, 0x42, 0x1f, 0x5a, 0x41, 0x42, 0x00, 0x42
        1F 5A 41 42 00 42
   0823 1F 5A 41 42 00 42   153   .db 0x1f, 0x5a, 0x41, 0x42, 0x00, 0x42, 0x1f, 0x5a, 0x41, 0x42, 0x00, 0x42
        1F 5A 41 42 00 42
   082F 1F 56 41 42 00 42   154   .db 0x1f, 0x56, 0x41, 0x42, 0x00, 0x42, 0x1f, 0x02, 0x72, 0x61, 0x08, 0x02
        1F 02 72 61 08 02
   083B 72 4F 72 41 02 72   155   .db 0x72, 0x4f, 0x72, 0x41, 0x02, 0x72, 0x4f, 0x72, 0x41, 0x02, 0x72, 0x4f
        4F 72 41 02 72 4F
   0847 72 41 02 72 4F 8A   156   .db 0x72, 0x41, 0x02, 0x72, 0x4f, 0x8a, 0x41, 0x02, 0x8c, 0x40, 0x02, 0x5a
        41 02 8C 40 02 5A
   0853 60 06 42 00 42 1F   157   .db 0x60, 0x06, 0x42, 0x00, 0x42, 0x1f, 0x5a, 0x41, 0x42, 0x00, 0x42, 0x1f
        5A 41 42 00 42 1F
   085F 5A 41 42 00 42 1F   158   .db 0x5a, 0x41, 0x42, 0x00, 0x42, 0x1f, 0x5a, 0x41, 0x42, 0x00, 0x42, 0x1f
        5A 41 42 00 42 1F
   086B 56 41 42 00 42 1F   159   .db 0x56, 0x41, 0x42, 0x00, 0x42, 0x1f, 0x02, 0x8a, 0x61, 0x07, 0x04, 0xa2
        02 8A 61 07 04 A2
   0877 60 01 8A 60 07 02   160   .db 0x60, 0x01, 0x8a, 0x60, 0x07, 0x02, 0xba, 0x60, 0x01, 0x02, 0x8a, 0x60
        BA 60 01 02 8A 60
   0883 07 04 A2 60 01 86   161   .db 0x07, 0x04, 0xa2, 0x60, 0x01, 0x86, 0x60, 0x07, 0x02, 0x9e, 0x60, 0x01
        60 07 02 9E 60 01
   088F 00 68 E0 00 00 02   162   .db 0x00, 0x68, 0xe0, 0x00, 0x00, 0x02, 0x04, 0x72, 0x60, 0x09, 0x68, 0x60
        04 72 60 09 68 60
   089B 02 02 72 60 09 02   163   .db 0x02, 0x02, 0x72, 0x60, 0x09, 0x02, 0x68, 0x60, 0x02, 0x04, 0x72, 0x60
        68 60 02 04 72 60
   08A7 09 68 60 02 02 72   164   .db 0x09, 0x68, 0x60, 0x02, 0x02, 0x72, 0x60, 0x09, 0x02, 0x68, 0x60, 0x02
        60 09 02 68 60 02
   08B3 04 72 60 09 68 60   165   .db 0x04, 0x72, 0x60, 0x09, 0x68, 0x60, 0x02, 0x02, 0x72, 0x60, 0x09, 0x02
        02 02 72 60 09 02
   08BF 68 60 02 72 60 09   166   .db 0x68, 0x60, 0x02, 0x72, 0x60, 0x09, 0x42, 0x00, 0x33, 0x68, 0x60, 0x02
        42 00 33 68 60 02
   08CB 02 72 60 09 02 68   167   .db 0x02, 0x72, 0x60, 0x09, 0x02, 0x68, 0x60, 0x02, 0x04, 0x72, 0x60, 0x09
        60 02 04 72 60 09
   08D7 68 60 02 02 72 60   168   .db 0x68, 0x60, 0x02, 0x02, 0x72, 0x60, 0x09, 0x02, 0x68, 0x60, 0x02, 0x04
        09 02 68 60 02 04
ASxxxx Assembler V01.75 + SDCC mods  (Zilog Z80 / Hitachi HD64180), page 8.



   08E3 72 60 09 68 60 02   169   .db 0x72, 0x60, 0x09, 0x68, 0x60, 0x02, 0x02, 0x72, 0x60, 0x09, 0x02, 0x68
        02 72 60 09 02 68
   08EF 60 02 04 29 29 02   170   .db 0x60, 0x02, 0x04, 0x29, 0x29, 0x02, 0x72, 0x60, 0x09, 0x02, 0x68, 0x60
        72 60 09 02 68 60
   08FB 02 04 29 72 60 09   171   .db 0x02, 0x04, 0x29, 0x72, 0x60, 0x09, 0x42, 0x00, 0x33, 0x42, 0x00, 0x5a
        42 00 33 42 00 5A
   0907 E1 00 00 06 42 00   172   .db 0xe1, 0x00, 0x00, 0x06, 0x42, 0x00, 0x42, 0x1f, 0x5a, 0x41, 0x42, 0x00
        42 1F 5A 41 42 00
   0913 42 1F 5A 41 42 00   173   .db 0x42, 0x1f, 0x5a, 0x41, 0x42, 0x00, 0x42, 0x1f, 0x5a, 0x41, 0x42, 0x00
        42 1F 5A 41 42 00
   091F 42 1F 56 41 42 00   174   .db 0x42, 0x1f, 0x56, 0x41, 0x42, 0x00, 0x42, 0x1f, 0x02, 0x72, 0x61, 0x08
        42 1F 02 72 61 08
   092B 02 72 4F 72 41 02   175   .db 0x02, 0x72, 0x4f, 0x72, 0x41, 0x02, 0x72, 0x4f, 0x72, 0x41, 0x02, 0x72
        72 4F 72 41 02 72
   0937 4F 72 41 02 72 4F   176   .db 0x4f, 0x72, 0x41, 0x02, 0x72, 0x4f, 0x8a, 0x41, 0x02, 0x8c, 0x40, 0x02
        8A 41 02 8C 40 02
   0943 5A 60 06 42 00 42   177   .db 0x5a, 0x60, 0x06, 0x42, 0x00, 0x42, 0x1f, 0x5a, 0x41, 0x42, 0x00, 0x42
        1F 5A 41 42 00 42
   094F 1F 5A 41 42 00 42   178   .db 0x1f, 0x5a, 0x41, 0x42, 0x00, 0x42, 0x1f, 0x5a, 0x41, 0x42, 0x00, 0x42
        1F 5A 41 42 00 42
   095B 1F 56 41 42 00 42   179   .db 0x1f, 0x56, 0x41, 0x42, 0x00, 0x42, 0x1f, 0x02, 0x72, 0x61, 0x08, 0x02
        1F 02 72 61 08 02
   0967 72 4F 72 41 02 72   180   .db 0x72, 0x4f, 0x72, 0x41, 0x02, 0x72, 0x4f, 0x72, 0x41, 0x02, 0x72, 0x4f
        4F 72 41 02 72 4F
   0973 72 41 02 72 4F 8A   181   .db 0x72, 0x41, 0x02, 0x72, 0x4f, 0x8a, 0x41, 0x02, 0x86, 0x40, 0x00, 0x5a
        41 02 86 40 00 5A
   097F E0 00 00 0A 3E 42   182   .db 0xe0, 0x00, 0x00, 0x0a, 0x3e, 0x42, 0x80, 0x10, 0x00, 0x42, 0x80, 0x20
        80 10 00 42 80 20
   098B 00 42 80 30 00 42   183   .db 0x00, 0x42, 0x80, 0x30, 0x00, 0x42, 0x80, 0x40, 0x00, 0x42, 0x80, 0x50
        80 40 00 42 80 50
   0997 00 42 80 60 00 42   184   .db 0x00, 0x42, 0x80, 0x60, 0x00, 0x42, 0x80, 0x70, 0x00, 0x42, 0x80, 0x80
        80 70 00 42 80 80
   09A3 00 42 80 90 00 42   185   .db 0x00, 0x42, 0x80, 0x90, 0x00, 0x42, 0x80, 0xa0, 0x00, 0x42, 0x80, 0xb0
        80 A0 00 42 80 B0
   09AF 00 42 80 C0 00 42   186   .db 0x00, 0x42, 0x80, 0xc0, 0x00, 0x42, 0x80, 0xd0, 0x00, 0x42, 0x80, 0xe0
        80 D0 00 42 80 E0
   09BB 00 42 80 F0 00 42   187   .db 0x00, 0x42, 0x80, 0xf0, 0x00, 0x42, 0x80, 0x00, 0x01, 0x42, 0x80, 0x10
        80 00 01 42 80 10
   09C7 01 42 80 20 01 42   188   .db 0x01, 0x42, 0x80, 0x20, 0x01, 0x42, 0x80, 0x30, 0x01, 0x42, 0x80, 0x40
        80 30 01 42 80 40
   09D3 01 42 80 50 01 42   189   .db 0x01, 0x42, 0x80, 0x50, 0x01, 0x42, 0x80, 0x60, 0x01, 0x42, 0x80, 0x70
        80 60 01 42 80 70
   09DF 01 42 80 80 01 42   190   .db 0x01, 0x42, 0x80, 0x80, 0x01, 0x42, 0x80, 0x90, 0x01, 0x42, 0x80, 0xa0
        80 90 01 42 80 A0
   09EB 01 42 80 B0 01 42   191   .db 0x01, 0x42, 0x80, 0xb0, 0x01, 0x42, 0x80, 0xc0, 0x01, 0x42, 0x80, 0xd0
        80 C0 01 42 80 D0
   09F7 01 42 80 E0 01 42   192   .db 0x01, 0x42, 0x80, 0xe0, 0x01, 0x42, 0x80, 0xf0, 0x01, 0x42, 0x80, 0x00
        80 F0 01 42 80 00
   0A03 02 42 E1 00 00 0A   193   .db 0x02, 0x42, 0xe1, 0x00, 0x00, 0x0a, 0x06, 0x42, 0x03, 0x06, 0x42, 0x05
        06 42 03 06 42 05
   0A0F 06 42 07 06 42 09   194   .db 0x06, 0x42, 0x07, 0x06, 0x42, 0x09, 0x06, 0x42, 0x0b, 0x06, 0x42, 0x0d
        06 42 0B 06 42 0D
   0A1B 06 42 0F 06 42 11   195   .db 0x06, 0x42, 0x0f, 0x06, 0x42, 0x11, 0x06, 0x42, 0x13, 0x06, 0x42, 0x15
        06 42 13 06 42 15
   0A27 06 42 17 06 42 19   196   .db 0x06, 0x42, 0x17, 0x06, 0x42, 0x19, 0x06, 0x42, 0x1b, 0x06, 0x42, 0x1d
        06 42 1B 06 42 1D
ASxxxx Assembler V01.75 + SDCC mods  (Zilog Z80 / Hitachi HD64180), page 9.



   0A33 06 42 1F 00 8A E0   197   .db 0x06, 0x42, 0x1f, 0x00, 0x8a, 0xe0, 0x00, 0x00, 0x08, 0x51, 0x59, 0x4b
        00 00 08 51 59 4B
   0A3F 51 59 4B 51 59 4B   198   .db 0x51, 0x59, 0x4b, 0x51, 0x59, 0x4b, 0x51, 0x59, 0x4b, 0x51, 0x59, 0x51
        51 59 4B 51 59 51
   0A4B 47 4D 55 47 4D 55   199   .db 0x47, 0x4d, 0x55, 0x47, 0x4d, 0x55, 0x47, 0x4d, 0x55, 0x47, 0x4d, 0x55
        47 4D 55 47 4D 55
   0A57 47 4D 55 4D 4B 55   200   .db 0x47, 0x4d, 0x55, 0x4d, 0x4b, 0x55, 0x59, 0x4b, 0x55, 0x59, 0x4b, 0x55
        59 4B 55 59 4B 55
   0A63 59 4B 55 59 4B 55   201   .db 0x59, 0x4b, 0x55, 0x59, 0x4b, 0x55, 0x59, 0x55, 0x51, 0x5b, 0x5f, 0x51
        59 55 51 5B 5F 51
   0A6F 5B 5F 51 5B 5F 51   202   .db 0x5b, 0x5f, 0x51, 0x5b, 0x5f, 0x51, 0x5b, 0x5f, 0x51, 0x5b, 0x5f, 0x51
        5B 5F 51 5B 5F 51
   0A7B 8A E5 00 00 03 02   203   .db 0x8a, 0xe5, 0x00, 0x00, 0x03, 0x02, 0x8a, 0x40, 0x02, 0x8a, 0x40, 0x02
        8A 40 02 8A 40 02
   0A87 8A 40 02 8A 40 02   204   .db 0x8a, 0x40, 0x02, 0x8a, 0x40, 0x02, 0x8a, 0x40, 0x02, 0x8a, 0x40, 0x02
        8A 40 02 8A 40 02
   0A93 8A 40 02 8A 40 02   205   .db 0x8a, 0x40, 0x02, 0x8a, 0x40, 0x02, 0x8a, 0x40, 0x02, 0x8a, 0x40, 0x02
        8A 40 02 8A 40 02
   0A9F 8A 40 02 8A 40 02   206   .db 0x8a, 0x40, 0x02, 0x8a, 0x40, 0x02, 0x8a, 0x40, 0x02, 0x8a, 0x40, 0x02
        8A 40 02 8A 40 02
   0AAB 8A 40 02 8A 40 02   207   .db 0x8a, 0x40, 0x02, 0x8a, 0x40, 0x02, 0x8a, 0x40, 0x02, 0x8a, 0x40, 0x02
        8A 40 02 8A 40 02
   0AB7 8A 40 02 8A 40 02   208   .db 0x8a, 0x40, 0x02, 0x8a, 0x40, 0x02, 0x8a, 0x40, 0x02, 0x8a, 0x40, 0x02
        8A 40 02 8A 40 02
   0AC3 8A 40 02 8A 40 02   209   .db 0x8a, 0x40, 0x02, 0x8a, 0x40, 0x02, 0x8a, 0x40, 0x02, 0x8a, 0x40, 0x02
        8A 40 02 8A 40 02
   0ACF 8A 40 02 8A 40 02   210   .db 0x8a, 0x40, 0x02, 0x8a, 0x40, 0x02, 0x8a, 0x40, 0x02, 0x8a, 0x40, 0x02
        8A 40 02 8A 40 02
   0ADB 8A 40 00 68 E0 00   211   .db 0x8a, 0x40, 0x00, 0x68, 0xe0, 0x00, 0x00, 0x02, 0x06, 0x29, 0x06, 0x29
        00 02 06 29 06 29
   0AE7 06 29 06 29 06 29   212   .db 0x06, 0x29, 0x06, 0x29, 0x06, 0x29, 0x06, 0x29, 0x06, 0x29, 0x06, 0x42
        06 29 06 29 06 42
   0AF3 00 06 42 00 06 42   213   .db 0x00, 0x06, 0x42, 0x00, 0x06, 0x42, 0x00, 0x06, 0x42, 0x00, 0x06, 0x29
        00 06 42 00 06 29
   0AFF 04 29 02 8A 60 09   214   .db 0x04, 0x29, 0x02, 0x8a, 0x60, 0x09, 0x68, 0x60, 0x02, 0x02, 0x8a, 0x60
        68 60 02 02 8A 60
   0B0B 09 4B 68 60 02 8A   215   .db 0x09, 0x4b, 0x68, 0x60, 0x02, 0x8a, 0x60, 0x09, 0x4b, 0x68, 0x60, 0x02
        60 09 4B 68 60 02
   0B17 8A 60 09 4B BA E1   216   .db 0x8a, 0x60, 0x09, 0x4b, 0xba, 0xe1, 0x00, 0x00, 0x01, 0x02, 0xba, 0x4f
        00 00 01 02 BA 4F
   0B23 BA 41 02 BA 4F BA   217   .db 0xba, 0x41, 0x02, 0xba, 0x4f, 0xba, 0x41, 0xba, 0x4f, 0x02, 0xba, 0x41
        41 BA 4F 02 BA 41
   0B2F 02 BA 4F BA 41 02   218   .db 0x02, 0xba, 0x4f, 0xba, 0x41, 0x02, 0xbc, 0x40, 0x02, 0xb6, 0x40, 0x02
        BC 40 02 B6 40 02
   0B3B B6 4F B6 41 02 B6   219   .db 0xb6, 0x4f, 0xb6, 0x41, 0x02, 0xb6, 0x4f, 0xb6, 0x41, 0xb6, 0x4f, 0x02
        4F B6 41 B6 4F 02
   0B47 B6 41 02 B6 4F B6   220   .db 0xb6, 0x41, 0x02, 0xb6, 0x4f, 0xb6, 0x41, 0x02, 0xb2, 0x40, 0x02, 0xba
        41 02 B2 40 02 BA
   0B53 40 02 BA 4F BA 41   221   .db 0x40, 0x02, 0xba, 0x4f, 0xba, 0x41, 0x02, 0xba, 0x4f, 0xba, 0x41, 0xba
        02 BA 4F BA 41 BA
   0B5F 4F 02 BA 41 02 BA   222   .db 0x4f, 0x02, 0xba, 0x41, 0x02, 0xba, 0x4f, 0xba, 0x41, 0x02, 0xbc, 0x40
        4F BA 41 02 BC 40
   0B6B 02 C0 40 02 C0 4F   223   .db 0x02, 0xc0, 0x40, 0x02, 0xc0, 0x4f, 0xc0, 0x41, 0x02, 0xc0, 0x4f, 0xc0
        C0 41 02 C0 4F C0
   0B77 41 C0 4F 02 C0 41   224   .db 0x41, 0xc0, 0x4f, 0x02, 0xc0, 0x41, 0x02, 0xc0, 0x4f, 0xc0, 0x41, 0x02
        02 C0 4F C0 41 02
ASxxxx Assembler V01.75 + SDCC mods  (Zilog Z80 / Hitachi HD64180), page 10.



   0B83 C8 40 00 42 80 00   225   .db 0xc8, 0x40, 0x00, 0x42, 0x80, 0x00, 0x00, 0x02, 0x8a, 0x60, 0x05, 0x02
        00 02 8A 60 05 02
   0B8F 8A 60 04 02 8A 60   226   .db 0x8a, 0x60, 0x04, 0x02, 0x8a, 0x60, 0x05, 0xba, 0x60, 0x03, 0x02, 0x7b
        05 BA 60 03 02 7B
   0B9B 8A 60 05 02 8A 60   227   .db 0x8a, 0x60, 0x05, 0x02, 0x8a, 0x60, 0x04, 0x02, 0x8a, 0x60, 0x05, 0x02
        04 02 8A 60 05 02
   0BA7 42 00 02 4B 02 8A   228   .db 0x42, 0x00, 0x02, 0x4b, 0x02, 0x8a, 0x60, 0x04, 0x02, 0x8a, 0x60, 0x05
        60 04 02 8A 60 05
   0BB3 BA 60 03 02 7B 8A   229   .db 0xba, 0x60, 0x03, 0x02, 0x7b, 0x8a, 0x60, 0x05, 0x02, 0x8a, 0x60, 0x04
        60 05 02 8A 60 04
   0BBF 02 8A 60 05 02 42   230   .db 0x02, 0x8a, 0x60, 0x05, 0x02, 0x42, 0x00, 0x02, 0x4b, 0x02, 0x8a, 0x60
        00 02 4B 02 8A 60
   0BCB 04 02 8A 60 05 BA   231   .db 0x04, 0x02, 0x8a, 0x60, 0x05, 0xba, 0x60, 0x03, 0x04, 0x8a, 0x60, 0x05
        60 03 04 8A 60 05
   0BD7 02 8A 60 04 02 8A   232   .db 0x02, 0x8a, 0x60, 0x04, 0x02, 0x8a, 0x60, 0x05, 0x02, 0x42, 0x00, 0x02
        60 05 02 42 00 02
   0BE3 4B 02 8A 60 04 02   233   .db 0x4b, 0x02, 0x8a, 0x60, 0x04, 0x02, 0x8a, 0x60, 0x05, 0xba, 0x60, 0x03
        8A 60 05 BA 60 03
   0BEF 02 7B 8A 60 05 02   234   .db 0x02, 0x7b, 0x8a, 0x60, 0x05, 0x02, 0x8a, 0x60, 0x04, 0x02, 0x8a, 0x60
        8A 60 04 02 8A 60
   0BFB 05 00 68 E0 00 00   235   .db 0x05, 0x00, 0x68, 0xe0, 0x00, 0x00, 0x02, 0x02, 0x5a, 0x60, 0x06, 0x02
        02 02 5A 60 06 02
   0C07 68 60 02 02 5A 60   236   .db 0x68, 0x60, 0x02, 0x02, 0x5a, 0x60, 0x06, 0x02, 0x68, 0x60, 0x02, 0x02
        06 02 68 60 02 02
   0C13 5A 60 06 02 68 60   237   .db 0x5a, 0x60, 0x06, 0x02, 0x68, 0x60, 0x02, 0x02, 0x50, 0x60, 0x06, 0x02
        02 02 50 60 06 02
   0C1F 68 60 02 02 56 60   238   .db 0x68, 0x60, 0x02, 0x02, 0x56, 0x60, 0x06, 0x02, 0x68, 0x60, 0x02, 0x02
        06 02 68 60 02 02
   0C2B 56 60 06 02 68 60   239   .db 0x56, 0x60, 0x06, 0x02, 0x68, 0x60, 0x02, 0x02, 0x56, 0x60, 0x06, 0x02
        02 02 56 60 06 02
   0C37 68 60 02 02 4C 60   240   .db 0x68, 0x60, 0x02, 0x02, 0x4c, 0x60, 0x06, 0x02, 0x68, 0x60, 0x02, 0x02
        06 02 68 60 02 02
   0C43 5A 60 06 02 68 60   241   .db 0x5a, 0x60, 0x06, 0x02, 0x68, 0x60, 0x02, 0x02, 0x5a, 0x60, 0x06, 0x02
        02 02 5A 60 06 02
   0C4F 68 60 02 02 5A 60   242   .db 0x68, 0x60, 0x02, 0x02, 0x5a, 0x60, 0x06, 0x02, 0x68, 0x60, 0x02, 0x02
        06 02 68 60 02 02
   0C5B 50 60 06 02 68 60   243   .db 0x50, 0x60, 0x06, 0x02, 0x68, 0x60, 0x02, 0x02, 0x60, 0x60, 0x06, 0x02
        02 02 60 60 06 02
   0C67 68 60 02 02 60 60   244   .db 0x68, 0x60, 0x02, 0x02, 0x60, 0x60, 0x06, 0x02, 0x68, 0x60, 0x02, 0x02
        06 02 68 60 02 02
   0C73 60 60 06 02 68 60   245   .db 0x60, 0x60, 0x06, 0x02, 0x68, 0x60, 0x02, 0x02, 0x6e, 0x60, 0x06, 0x00
        02 02 6E 60 06 00
   0C7F 68 E0 00 00 02 42   246   .db 0x68, 0xe0, 0x00, 0x00, 0x02, 0x42, 0x00, 0x5a, 0x60, 0x06, 0x02, 0x68
        00 5A 60 06 02 68
   0C8B 60 02 42 00 5A 60   247   .db 0x60, 0x02, 0x42, 0x00, 0x5a, 0x60, 0x06, 0x02, 0x68, 0x60, 0x02, 0x42
        06 02 68 60 02 42
   0C97 00 5A 60 06 02 68   248   .db 0x00, 0x5a, 0x60, 0x06, 0x02, 0x68, 0x60, 0x02, 0x42, 0x00, 0x5c, 0x60
        60 02 42 00 5C 60
   0CA3 06 02 68 60 02 42   249   .db 0x06, 0x02, 0x68, 0x60, 0x02, 0x42, 0x00, 0x56, 0x60, 0x06, 0x02, 0x68
        00 56 60 06 02 68
   0CAF 60 02 42 00 56 60   250   .db 0x60, 0x02, 0x42, 0x00, 0x56, 0x60, 0x06, 0x02, 0x68, 0x60, 0x02, 0x42
        06 02 68 60 02 42
   0CBB 00 56 60 06 02 68   251   .db 0x00, 0x56, 0x60, 0x06, 0x02, 0x68, 0x60, 0x02, 0x42, 0x00, 0x52, 0x60
        60 02 42 00 52 60
   0CC7 06 02 68 60 02 42   252   .db 0x06, 0x02, 0x68, 0x60, 0x02, 0x42, 0x00, 0x5a, 0x60, 0x06, 0x02, 0x68
        00 5A 60 06 02 68
ASxxxx Assembler V01.75 + SDCC mods  (Zilog Z80 / Hitachi HD64180), page 11.



   0CD3 60 02 42 00 5A 60   253   .db 0x60, 0x02, 0x42, 0x00, 0x5a, 0x60, 0x06, 0x02, 0x68, 0x60, 0x02, 0x42
        06 02 68 60 02 42
   0CDF 00 5A 60 06 02 68   254   .db 0x00, 0x5a, 0x60, 0x06, 0x02, 0x68, 0x60, 0x02, 0x42, 0x00, 0x5c, 0x60
        60 02 42 00 5C 60
   0CEB 06 02 68 60 02 42   255   .db 0x06, 0x02, 0x68, 0x60, 0x02, 0x42, 0x00, 0x60, 0x60, 0x06, 0x02, 0x68
        00 60 60 06 02 68
   0CF7 60 02 42 00 60 60   256   .db 0x60, 0x02, 0x42, 0x00, 0x60, 0x60, 0x06, 0x02, 0x68, 0x60, 0x02, 0x42
        06 02 68 60 02 42
   0D03 00 60 60 06 02 68   257   .db 0x00, 0x60, 0x60, 0x06, 0x02, 0x68, 0x60, 0x02, 0x42, 0x00, 0x68, 0x60
        60 02 42 00 68 60
   0D0F 06 00 A2 E0 00 00   258   .db 0x06, 0x00, 0xa2, 0xe0, 0x00, 0x00, 0x08, 0x69, 0x71, 0x63, 0x69, 0x71
        08 69 71 63 69 71
   0D1B 63 69 71 63 69 71   259   .db 0x63, 0x69, 0x71, 0x63, 0x69, 0x71, 0x63, 0x69, 0x71, 0x69, 0x9e, 0x43
        63 69 71 69 9E 43
   0D27 65 6D 5F 65 6D 5F   260   .db 0x65, 0x6d, 0x5f, 0x65, 0x6d, 0x5f, 0x65, 0xac, 0x45, 0x5f, 0x65, 0x6d
        65 AC 45 5F 65 6D
   0D33 5F 65 6D 65 A2 47   261   .db 0x5f, 0x65, 0x6d, 0x65, 0xa2, 0x47, 0x6d, 0xb0, 0x49, 0x63, 0xac, 0x4b
        6D B0 49 63 AC 4B
   0D3F 71 A2 4D 6D B0 4F   262   .db 0x71, 0xa2, 0x4d, 0x6d, 0xb0, 0x4f, 0x63, 0xac, 0x51, 0x71, 0xa2, 0x53
        63 AC 51 71 A2 53
   0D4B 6D B0 55 6D A8 57   263   .db 0x6d, 0xb0, 0x55, 0x6d, 0xa8, 0x57, 0x73, 0xb6, 0x59, 0x69, 0xb2, 0x5b
        73 B6 59 69 B2 5B
   0D57 77 A8 5D 73 42 1F   264   .db 0x77, 0xa8, 0x5d, 0x73, 0x42, 0x1f, 0x42, 0x00, 0x42, 0x00, 0x42, 0x00
        42 00 42 00 42 00
   0D63 42 00 42 00 42 00   265   .db 0x42, 0x00, 0x42, 0x00, 0x42, 0x00, 0x42, 0x00, 0x68, 0xe0, 0x00, 0x00
        42 00 68 E0 00 00
   0D6F 02 02 5A 60 06 02   266   .db 0x02, 0x02, 0x5a, 0x60, 0x06, 0x02, 0x68, 0x60, 0x02, 0x02, 0x5a, 0x60
        68 60 02 02 5A 60
   0D7B 06 02 68 60 02 02   267   .db 0x06, 0x02, 0x68, 0x60, 0x02, 0x02, 0x5a, 0x60, 0x06, 0x02, 0x68, 0x60
        5A 60 06 02 68 60
   0D87 02 02 50 60 06 02   268   .db 0x02, 0x02, 0x50, 0x60, 0x06, 0x02, 0x68, 0x63, 0x02, 0x02, 0x56, 0x60
        68 63 02 02 56 60
   0D93 06 02 68 60 02 02   269   .db 0x06, 0x02, 0x68, 0x60, 0x02, 0x02, 0x56, 0x60, 0x06, 0x02, 0x68, 0x65
        56 60 06 02 68 65
   0D9F 02 02 56 60 06 02   270   .db 0x02, 0x02, 0x56, 0x60, 0x06, 0x02, 0x68, 0x60, 0x02, 0x02, 0x4c, 0x60
        68 60 02 02 4C 60
   0DAB 06 02 68 67 02 02   271   .db 0x06, 0x02, 0x68, 0x67, 0x02, 0x02, 0x5a, 0x69, 0x06, 0x02, 0x68, 0x6b
        5A 69 06 02 68 6B
   0DB7 02 02 5A 6D 06 02   272   .db 0x02, 0x02, 0x5a, 0x6d, 0x06, 0x02, 0x68, 0x6f, 0x02, 0x02, 0x5a, 0x71
        68 6F 02 02 5A 71
   0DC3 06 02 68 73 02 02   273   .db 0x06, 0x02, 0x68, 0x73, 0x02, 0x02, 0x50, 0x75, 0x06, 0x02, 0x68, 0x77
        50 75 06 02 68 77
   0DCF 02 02 60 79 06 02   274   .db 0x02, 0x02, 0x60, 0x79, 0x06, 0x02, 0x68, 0x7b, 0x02, 0x02, 0x60, 0x7d
        68 7B 02 02 60 7D
   0DDB 06 02 42 1F 02 42   275   .db 0x06, 0x02, 0x42, 0x1f, 0x02, 0x42, 0x00, 0x02, 0x42, 0x00, 0x02, 0x42
        00 02 42 00 02 42
   0DE7 00 00 42 80 00 00   276   .db 0x00, 0x00, 0x42, 0x80, 0x00, 0x00, 0x02, 0x8a, 0x60, 0x05, 0x02, 0x8a
        02 8A 60 05 02 8A
   0DF3 60 04 02 8A 60 05   277   .db 0x60, 0x04, 0x02, 0x8a, 0x60, 0x05, 0xba, 0x60, 0x03, 0x02, 0x7b, 0x8a
        BA 60 03 02 7B 8A
   0DFF 60 05 02 8A 60 04   278   .db 0x60, 0x05, 0x02, 0x8a, 0x60, 0x04, 0x02, 0x8a, 0x60, 0x05, 0x02, 0x42
        02 8A 60 05 02 42
   0E0B 03 02 4B 02 8A 60   279   .db 0x03, 0x02, 0x4b, 0x02, 0x8a, 0x60, 0x04, 0x02, 0x8a, 0x60, 0x05, 0xba
        04 02 8A 60 05 BA
   0E17 60 03 42 05 7B 8A   280   .db 0x60, 0x03, 0x42, 0x05, 0x7b, 0x8a, 0x60, 0x05, 0x02, 0x8a, 0x60, 0x04
        60 05 02 8A 60 04
ASxxxx Assembler V01.75 + SDCC mods  (Zilog Z80 / Hitachi HD64180), page 12.



   0E23 02 8A 60 05 02 42   281   .db 0x02, 0x8a, 0x60, 0x05, 0x02, 0x42, 0x07, 0x02, 0x8a, 0x49, 0x02, 0x8a
        07 02 8A 49 02 8A
   0E2F 6B 04 02 8A 6D 05   282   .db 0x6b, 0x04, 0x02, 0x8a, 0x6d, 0x05, 0xba, 0x60, 0x03, 0x42, 0x0f, 0x02
        BA 60 03 42 0F 02
   0E3B 8A 71 05 02 42 13   283   .db 0x8a, 0x71, 0x05, 0x02, 0x42, 0x13, 0x02, 0x8a, 0x55, 0x02, 0x42, 0x17
        02 8A 55 02 42 17
   0E47 02 42 19 02 8A 7B   284   .db 0x02, 0x42, 0x19, 0x02, 0x8a, 0x7b, 0x04, 0x02, 0x8a, 0x7d, 0x05, 0xba
        04 02 8A 7D 05 BA
   0E53 60 03 42 1F 42 00   285   .db 0x60, 0x03, 0x42, 0x1f, 0x42, 0x00, 0x42, 0x00, 0x02, 0x42, 0x00, 0x02
        42 00 02 42 00 02
   0E5F 42 00 00 42 60 00   286   .db 0x42, 0x00, 0x00, 0x42, 0x60, 0x00, 0x42, 0x80, 0x00, 0x00, 0x00, 0x68
        42 80 00 00 00 68
   0E6B E1 00 00 02 42 00   287   .db 0xe1, 0x00, 0x00, 0x02, 0x42, 0x00, 0x5a, 0x60, 0x03, 0x68, 0x60, 0x02
        5A 60 03 68 60 02
   0E77 72 60 04 02 5A 60   288   .db 0x72, 0x60, 0x04, 0x02, 0x5a, 0x60, 0x03, 0x68, 0x60, 0x02, 0x02, 0x29
        03 68 60 02 02 29
   0E83 5A 60 03 42 00 72   289   .db 0x5a, 0x60, 0x03, 0x42, 0x00, 0x72, 0x60, 0x04, 0x02, 0x5a, 0x60, 0x03
        60 04 02 5A 60 03
   0E8F 1B 68 60 02 42 00   290   .db 0x1b, 0x68, 0x60, 0x02, 0x42, 0x00, 0x5a, 0x60, 0x03, 0x68, 0x60, 0x02
        5A 60 03 68 60 02
   0E9B 72 60 04 02 5A 60   291   .db 0x72, 0x60, 0x04, 0x02, 0x5a, 0x60, 0x03, 0x68, 0x60, 0x02, 0x02, 0x29
        03 68 60 02 02 29
   0EA7 5A 60 03 68 60 02   292   .db 0x5a, 0x60, 0x03, 0x68, 0x60, 0x02, 0x72, 0x60, 0x04, 0x02, 0x5a, 0x60
        72 60 04 02 5A 60
   0EB3 03 72 60 04 68 60   293   .db 0x03, 0x72, 0x60, 0x04, 0x68, 0x60, 0x02, 0x42, 0x00, 0x5a, 0x60, 0x03
        02 42 00 5A 60 03
   0EBF 68 60 02 72 60 04   294   .db 0x68, 0x60, 0x02, 0x72, 0x60, 0x04, 0x02, 0x5a, 0x60, 0x03, 0x68, 0x60
        02 5A 60 03 68 60
   0ECB 02 02 29 5A 60 03   295   .db 0x02, 0x02, 0x29, 0x5a, 0x60, 0x03, 0x42, 0x00, 0x72, 0x60, 0x04, 0x02
        42 00 72 60 04 02
   0ED7 5A 60 03 1B 68 60   296   .db 0x5a, 0x60, 0x03, 0x1b, 0x68, 0x60, 0x02, 0x42, 0x00, 0x5a, 0x60, 0x03
        02 42 00 5A 60 03
   0EE3 68 60 02 72 60 04   297   .db 0x68, 0x60, 0x02, 0x72, 0x60, 0x04, 0x02, 0x5a, 0x60, 0x03, 0x68, 0x60
        02 5A 60 03 68 60
   0EEF 02 02 29 5A 60 03   298   .db 0x02, 0x02, 0x29, 0x5a, 0x60, 0x03, 0x68, 0x60, 0x02, 0x72, 0x60, 0x04
        68 60 02 72 60 04
   0EFB 02 5A 60 03 72 60   299   .db 0x02, 0x5a, 0x60, 0x03, 0x72, 0x60, 0x04, 0x5a, 0xe1, 0x00, 0x00, 0x0b
        04 5A E1 00 00 0B
   0F07 1E 25 1E 29 1E 23   300   .db 0x1e, 0x25, 0x1e, 0x29, 0x1e, 0x23, 0x1a, 0x15, 0x00, 0x42, 0x80, 0x00
        1A 15 00 42 80 00
   0F13 00 00 A2 E1 00 00   301   .db 0x00, 0x00, 0xa2, 0xe1, 0x00, 0x00, 0x0c, 0x02, 0x7b, 0x02, 0x83, 0x02
        0C 02 7B 02 83 02
   0F1F 71 7B 02 83 42 00   302   .db 0x71, 0x7b, 0x02, 0x83, 0x42, 0x00, 0x63, 0x7b, 0x02, 0x81, 0x7f, 0x6d
        63 7B 02 81 7F 6D
   0F2B 02 75 02 7B 02 6D   303   .db 0x02, 0x75, 0x02, 0x7b, 0x02, 0x6d, 0x75, 0x02, 0x7b, 0x02, 0x6d, 0x75
        75 02 7B 02 6D 75
   0F37 02 7B 79 71 02 75   304   .db 0x02, 0x7b, 0x79, 0x71, 0x02, 0x75, 0x02, 0x89, 0x02, 0x71, 0x75, 0x02
        02 89 02 71 75 02
   0F43 89 02 71 75 02 8D   305   .db 0x89, 0x02, 0x71, 0x75, 0x02, 0x8d, 0x42, 0x00, 0x83, 0x02, 0x8d, 0x02
        42 00 83 02 8D 02
   0F4F 93 02 83 8D 02 93   306   .db 0x93, 0x02, 0x83, 0x8d, 0x02, 0x93, 0x02, 0x83, 0x8d, 0x02, 0x93, 0x8d
        02 83 8D 02 93 8D
   0F5B A2 E1 00 00 01 63   307   .db 0xa2, 0xe1, 0x00, 0x00, 0x01, 0x63, 0x02, 0x63, 0x02, 0x63, 0x63, 0x02
        02 63 02 63 63 02
   0F67 63 02 A2 60 0D 02   308   .db 0x63, 0x02, 0xa2, 0x60, 0x0d, 0x02, 0xa2, 0x60, 0x01, 0x02, 0x98, 0x60
        A2 60 01 02 98 60
ASxxxx Assembler V01.75 + SDCC mods  (Zilog Z80 / Hitachi HD64180), page 13.



   0F73 0D 02 AC 60 01 6D   309   .db 0x0d, 0x02, 0xac, 0x60, 0x01, 0x6d, 0x02, 0x6d, 0x02, 0x6d, 0xac, 0x60
        02 6D 02 6D AC 60
   0F7F 0D 02 AC 60 01 02   310   .db 0x0d, 0x02, 0xac, 0x60, 0x01, 0x02, 0xac, 0x60, 0x0d, 0x02, 0x6d, 0x02
        AC 60 0D 02 6D 02
   0F8B B2 60 01 02 71 02   311   .db 0xb2, 0x60, 0x01, 0x02, 0x71, 0x02, 0x71, 0x71, 0x02, 0x71, 0x71, 0x02
        71 71 02 71 71 02
   0F97 71 02 71 02 71 02   312   .db 0x71, 0x02, 0x71, 0x02, 0x71, 0x02, 0xb0, 0x60, 0x0d, 0x02, 0xaa, 0x60
        B0 60 0D 02 AA 60
   0FA3 01 02 6B 6B 02 6B   313   .db 0x01, 0x02, 0x6b, 0x6b, 0x02, 0x6b, 0x6b, 0x02, 0x6b, 0x02, 0x6b, 0x02
        6B 02 6B 02 6B 02
   0FAF 6B 02 5D 00 5A E0   314   .db 0x6b, 0x02, 0x5d, 0x00, 0x5a, 0xe0, 0x00, 0x00, 0x0c, 0x02, 0x42, 0x07
        00 00 0C 02 42 07
   0FBB 02 5A 40 02 42 0F   315   .db 0x02, 0x5a, 0x40, 0x02, 0x42, 0x0f, 0x42, 0x00, 0x5a, 0x40, 0x42, 0x00
        42 00 5A 40 42 00
   0FC7 42 13 42 00 42 00   316   .db 0x42, 0x13, 0x42, 0x00, 0x42, 0x00, 0x02, 0x42, 0x00, 0x42, 0x1f, 0x42
        02 42 00 42 1F 42
   0FD3 00 02 42 00 02 42   317   .db 0x00, 0x02, 0x42, 0x00, 0x02, 0x42, 0x00, 0x02, 0x42, 0x00, 0x42, 0x00
        00 02 42 00 42 00
   0FDF 02 42 00 02 42 00   318   .db 0x02, 0x42, 0x00, 0x02, 0x42, 0x00, 0x42, 0x00, 0x02, 0x42, 0x00, 0x42
        42 00 02 42 00 42
   0FEB 00 42 00 02 42 00   319   .db 0x00, 0x42, 0x00, 0x02, 0x42, 0x00, 0x02, 0x42, 0x00, 0x02, 0x42, 0x00
        02 42 00 02 42 00
   0FF7 42 00 02 42 00 02   320   .db 0x42, 0x00, 0x02, 0x42, 0x00, 0x02, 0x42, 0x00, 0x42, 0x00, 0x02, 0x42
        42 00 42 00 02 42
   1003 00 42 00 42 00 02   321   .db 0x00, 0x42, 0x00, 0x42, 0x00, 0x02, 0x42, 0x00, 0x02, 0x42, 0x00, 0x02
        42 00 02 42 00 02
   100F 42 00 42 00 02 42   322   .db 0x42, 0x00, 0x42, 0x00, 0x02, 0x42, 0x00, 0x02, 0x42, 0x00, 0x42, 0x00
        00 02 42 00 42 00
   101B 02 42 00 42 00 68   323   .db 0x02, 0x42, 0x00, 0x42, 0x00, 0x68, 0xe1, 0x00, 0x00, 0x02, 0x42, 0x03
        E1 00 00 02 42 03
   1027 42 05 72 67 04 68   324   .db 0x42, 0x05, 0x72, 0x67, 0x04, 0x68, 0x69, 0x02, 0x42, 0x0b, 0x42, 0x0d
        69 02 42 0B 42 0D
   1033 72 6F 04 68 71 02   325   .db 0x72, 0x6f, 0x04, 0x68, 0x71, 0x02, 0x42, 0x13, 0x42, 0x15, 0x72, 0x77
        42 13 42 15 72 77
   103F 04 68 79 02 42 1B   326   .db 0x04, 0x68, 0x79, 0x02, 0x42, 0x1b, 0x72, 0x7d, 0x04, 0x42, 0x1f, 0x42
        72 7D 04 42 1F 42
   104B 00 42 00 42 00 42   327   .db 0x00, 0x42, 0x00, 0x42, 0x00, 0x42, 0x00, 0x42, 0x00, 0x02, 0x42, 0x00
        00 42 00 02 42 00
   1057 42 00 02 42 00 42   328   .db 0x42, 0x00, 0x02, 0x42, 0x00, 0x42, 0x00, 0x42, 0x00, 0x42, 0x00, 0x02
        00 42 00 42 00 02
   1063 42 00 42 00 42 00   329   .db 0x42, 0x00, 0x42, 0x00, 0x42, 0x00, 0x42, 0x00, 0x42, 0x00, 0x42, 0x00
        42 00 42 00 42 00
   106F 42 00 02 42 00 42   330   .db 0x42, 0x00, 0x02, 0x42, 0x00, 0x42, 0x00, 0x02, 0x42, 0x00, 0x42, 0x00
        00 02 42 00 42 00
   107B 42 00 42 00 02 42   331   .db 0x42, 0x00, 0x42, 0x00, 0x02, 0x42, 0x00, 0x42, 0x00, 0x42, 0x00, 0x42
        00 42 00 42 00 42
   1087 00 42 00 42 00 42   332   .db 0x00, 0x42, 0x00, 0x42, 0x00, 0x42, 0x00, 0x02, 0x42, 0x00, 0x42, 0x00
        00 02 42 00 42 00
   1093 02 42 00 42 00 42   333   .db 0x02, 0x42, 0x00, 0x42, 0x00, 0x42, 0x00, 0x42, 0x00, 0x02, 0x42, 0x00
        00 42 00 02 42 00
   109F 42 00               334   .db 0x42, 0x00
ASxxxx Assembler V01.75 + SDCC mods  (Zilog Z80 / Hitachi HD64180), page 14.



                             21 
   10A1 CD 02 00             22 init:   call gsinit
   10A4 C3 00 00             23         jp   __pre_main
                             24 
                             25         ;--- Program code and data (global vars) start here
                             26 
                             27         ;* Place data after program code, and data init code after data
                             28 
                             29         .area   _CODE
                             30 
   0000                      31 __pre_main:
   0000 D5                   32         push de
   0001 11 00 00             33         ld de,#_HEAP_start
   0004 ED 53 00 00          34         ld (_heap_top),de
   0008 D1                   35         pop de
   0009 C3 00 00             36         jp _main
                             37 
                             38         .area   _DATA
                             39 
   0000                      40 _heap_top::
   0000 00 00                41         .dw 0
                             42 
                             43 gsinit: .area   _GSINIT
                             44        
                             45         .area   _GSFINAL
   0000 C9                   46         ret
                             47 
                             48         ;* These doesn't seem to be necessary... (?)
                             49 
                             50         ;.area  _OVERLAY
                             51         ;.area  _HOME
                             52         ;.area  _BSS
                             53 
                             54         .area   _HEAP
                             55 
   0000                      56 _HEAP_start::
ASxxxx Assembler V01.75 + SDCC mods  (Zilog Z80 / Hitachi HD64180), page 15.

Symbol Table

  5 _HEAP_start                                                    0000 GR
  0 __pre_main                                                     0000 R
  2 _heap_top                                                      0000 GR
    _main                                                          **** GX
  2 gsinit                                                         0002 R
  1 init                                                           10A1 R

ASxxxx Assembler V01.75 + SDCC mods  (Zilog Z80 / Hitachi HD64180), page 16.

Area Table

   0 _CODE                                                          size    C   flags 0
   1 _HEADER                                                        size 10A7   flags 8
   2 _DATA                                                          size    2   flags 0
   3 _GSINIT                                                        size    0   flags 0
   4 _GSFINAL                                                       size    1   flags 0
   5 _HEAP                                                          size    0   flags 0
