;--------------------------------------------------------
; File Created by SDCC : free open source ANSI-C Compiler
; Version 2.9.0 #5416 (Mar 22 2009) (Mac OS X i386)
; This file was generated Mon Feb 26 00:34:25 2018
;--------------------------------------------------------
	.module demo
	.optsdcc -mz80
	
;--------------------------------------------------------
; Public variables in this module
;--------------------------------------------------------
	.globl _main
	.globl _boxes
	.globl _drawbox
	.globl _animplay
	.globl _bulbs
	.globl _twister
	.globl _font
	.globl _drawsine
	.globl _drawstr
	.globl _do_letter_tall
	.globl _do_letter
	.globl _raster_effu
	.globl _do_blocks
	.globl _do_ymmm
	.globl _fadein
	.globl _pck_load
	.globl _raw_load
	.globl _pause
	.globl _pal_load
	.globl _scratch_clear
	.globl _ge5_load
	.globl _color_isr
	.globl _my_isr
	.globl _isNthBitSet
	.globl _bo
	.globl _byy
	.globl _bxx
	.globl _bt
	.globl _by
	.globl _bx
	.globl _dbly
	.globl _buffer
	.globl _boxes_init
	.globl _anim_init
	.globl _enderdir
	.globl _ender
	.globl _ff2
	.globl _ff1
	.globl _bulbflipper
	.globl _twinited
	.globl _ff
	.globl _ly
	.globl _lx
	.globl _linenum
	.globl _flof
	.globl _btab
	.globl _bty
	.globl _btx
	.globl _bsy
	.globl _bsx
	.globl _block_init
	.globl _cc
	.globl _yofff
	.globl _cmd
	.globl _tick
	.globl _vbicount
	.globl _boxes_palette
	.globl _tf_palette
	.globl _twister_palette
	.globl _block_palette
	.globl _cur_palette
	.globl _scratch
	.globl _tf2
	.globl _tf1
	.globl _packbuffer
	.globl _sintab
	.globl _font_w
	.globl _font_y
	.globl _font_x
	.globl _sintabx
;--------------------------------------------------------
; special function registers
;--------------------------------------------------------
;--------------------------------------------------------
;  ram data
;--------------------------------------------------------
	.area _DATA
_sintab::
	.ds 256
_packbuffer::
	.ds 12000
_tf1::
	.ds 12000
_tf2::
	.ds 12000
_scratch::
	.ds 128
_cur_palette::
	.ds 32
_block_palette::
	.ds 32
_twister_palette::
	.ds 32
_tf_palette::
	.ds 32
_boxes_palette::
	.ds 32
_vbicount::
	.ds 2
_tick::
	.ds 2
_cmd::
	.ds 15
_isNthBitSet_mask_1_1:
	.ds 8
_yofff::
	.ds 1
_cc::
	.ds 1
_flipper:
	.ds 2
_ymmmf:
	.ds 2
_block_init::
	.ds 1
_bsx::
	.ds 2
_bsy::
	.ds 2
_btx::
	.ds 2
_bty::
	.ds 2
_btab::
	.ds 32
_flof::
	.ds 2
_linenum::
	.ds 2
_lx::
	.ds 1
_ly::
	.ds 1
_ff::
	.ds 2
_twinited::
	.ds 2
_bulbflipper::
	.ds 2
_ff1::
	.ds 2
_ff2::
	.ds 2
_ender::
	.ds 2
_enderdir::
	.ds 2
_xo:
	.ds 2
_yo:
	.ds 2
_po:
	.ds 2
_fffaaa:
	.ds 2
_anim_init::
	.ds 2
_boxes_init::
	.ds 1
_buffer::
	.ds 2
_dbly::
	.ds 2
_bx::
	.ds 2
_by::
	.ds 2
_bt::
	.ds 2
_bxx::
	.ds 2
_byy::
	.ds 2
_bo::
	.ds 2
;--------------------------------------------------------
; overlayable items in  ram 
;--------------------------------------------------------
	.area _OVERLAY
;--------------------------------------------------------
; external initialized ram data
;--------------------------------------------------------
;--------------------------------------------------------
; global & static initialisations
;--------------------------------------------------------
	.area _HOME
	.area _GSINIT
	.area _GSFINAL
	.area _GSINIT
;demo.c:54: static unsigned char mask[] = {1, 2, 4, 8, 16, 32, 64, 128};
	ld	hl,#_isNthBitSet_mask_1_1
	call	__initrleblock
	.db	8
	.db	0x01, 0x02, 0x04, 0x08, 0x10, 0x20, 0x40, 0x80
	.db	0
;types.h:27: signed char sintab[256]={
	ld	hl,#_sintab
	call	__initrleblock
	.db	59
	.db	0x00, 0x03, 0x06, 0x09, 0x0C, 0x0F, 0x12, 0x15
	.db	0x18, 0x1B, 0x1E, 0x21, 0x24, 0x27, 0x2A, 0x2D
	.db	0x30, 0x33, 0x36, 0x39, 0x3B, 0x3E, 0x41, 0x43
	.db	0x46, 0x49, 0x4B, 0x4E, 0x50, 0x52, 0x55, 0x57
	.db	0x59, 0x5B, 0x5E, 0x60, 0x62, 0x64, 0x66, 0x67
	.db	0x69, 0x6B, 0x6C, 0x6E, 0x70, 0x71, 0x72, 0x74
	.db	0x75, 0x76, 0x77, 0x78, 0x79, 0x7A, 0x7B, 0x7B
	.db	0x7C, 0x7D, 0x7D
	.db	#-5,#0x7E
	.db	1
	.db	0x7F
	.db	#-5,#0x7E
	.db	117
	.db	0x7D, 0x7D, 0x7C, 0x7B, 0x7B, 0x7A, 0x79, 0x78
	.db	0x77, 0x76, 0x75, 0x74, 0x72, 0x71, 0x70, 0x6E
	.db	0x6C, 0x6B, 0x69, 0x67, 0x66, 0x64, 0x62, 0x60
	.db	0x5E, 0x5B, 0x59, 0x57, 0x55, 0x52, 0x50, 0x4E
	.db	0x4B, 0x49, 0x46, 0x43, 0x41, 0x3E, 0x3B, 0x39
	.db	0x36, 0x33, 0x30, 0x2D, 0x2A, 0x27, 0x24, 0x21
	.db	0x1E, 0x1B, 0x18, 0x15, 0x12, 0x0F, 0x0C, 0x09
	.db	0x06, 0x03, 0x00, 0xFD, 0xFA, 0xF7, 0xF4, 0xF1
	.db	0xEE, 0xEB, 0xE8, 0xE5, 0xE2, 0xDF, 0xDC, 0xD9
	.db	0xD6, 0xD3, 0xD0, 0xCD, 0xCA, 0xC7, 0xC5, 0xC2
	.db	0xBF, 0xBD, 0xBA, 0xB7, 0xB5, 0xB2, 0xB0, 0xAE
	.db	0xAB, 0xA9, 0xA7, 0xA5, 0xA2, 0xA0, 0x9E, 0x9C
	.db	0x9A, 0x99, 0x97, 0x95, 0x94, 0x92, 0x90, 0x8F
	.db	0x8E, 0x8C, 0x8B, 0x8A, 0x89, 0x88, 0x87, 0x86
	.db	0x85, 0x85, 0x84, 0x83, 0x83
	.db	#-5,#0x82
	.db	1
	.db	0x81
	.db	#-5,#0x82
	.db	58
	.db	0x83, 0x83, 0x84, 0x85, 0x85, 0x86, 0x87, 0x88
	.db	0x89, 0x8A, 0x8B, 0x8C, 0x8E, 0x8F, 0x90, 0x92
	.db	0x94, 0x95, 0x97, 0x99, 0x9A, 0x9C, 0x9E, 0xA0
	.db	0xA2, 0xA5, 0xA7, 0xA9, 0xAB, 0xAE, 0xB0, 0xB2
	.db	0xB5, 0xB7, 0xBA, 0xBD, 0xBF, 0xC2, 0xC5, 0xC7
	.db	0xCA, 0xCD, 0xD0, 0xD3, 0xD6, 0xD9, 0xDC, 0xDF
	.db	0xE2, 0xE5, 0xE8, 0xEB, 0xEE, 0xF1, 0xF4, 0xF7
	.db	0xFA, 0xFD
	.db	0
;demo.c:36: uint8_t packbuffer[12000] = {0};
	ld	hl,#_packbuffer
	call	__initrleblock
	.db	#-127,#0x00
	.db	#-127,#0x00
	.db	#-127,#0x00
	.db	#-127,#0x00
	.db	#-127,#0x00
	.db	#-127,#0x00
	.db	#-127,#0x00
	.db	#-127,#0x00
	.db	#-127,#0x00
	.db	#-127,#0x00
	.db	#-127,#0x00
	.db	#-127,#0x00
	.db	#-127,#0x00
	.db	#-127,#0x00
	.db	#-127,#0x00
	.db	#-127,#0x00
	.db	#-127,#0x00
	.db	#-127,#0x00
	.db	#-127,#0x00
	.db	#-127,#0x00
	.db	#-127,#0x00
	.db	#-127,#0x00
	.db	#-127,#0x00
	.db	#-127,#0x00
	.db	#-127,#0x00
	.db	#-127,#0x00
	.db	#-127,#0x00
	.db	#-127,#0x00
	.db	#-127,#0x00
	.db	#-127,#0x00
	.db	#-127,#0x00
	.db	#-127,#0x00
	.db	#-127,#0x00
	.db	#-127,#0x00
	.db	#-127,#0x00
	.db	#-127,#0x00
	.db	#-127,#0x00
	.db	#-127,#0x00
	.db	#-127,#0x00
	.db	#-127,#0x00
	.db	#-127,#0x00
	.db	#-127,#0x00
	.db	#-127,#0x00
	.db	#-127,#0x00
	.db	#-127,#0x00
	.db	#-127,#0x00
	.db	#-127,#0x00
	.db	#-127,#0x00
	.db	#-127,#0x00
	.db	#-127,#0x00
	.db	#-127,#0x00
	.db	#-127,#0x00
	.db	#-127,#0x00
	.db	#-127,#0x00
	.db	#-127,#0x00
	.db	#-127,#0x00
	.db	#-127,#0x00
	.db	#-127,#0x00
	.db	#-127,#0x00
	.db	#-127,#0x00
	.db	#-127,#0x00
	.db	#-127,#0x00
	.db	#-127,#0x00
	.db	#-127,#0x00
	.db	#-127,#0x00
	.db	#-127,#0x00
	.db	#-127,#0x00
	.db	#-127,#0x00
	.db	#-127,#0x00
	.db	#-127,#0x00
	.db	#-127,#0x00
	.db	#-127,#0x00
	.db	#-127,#0x00
	.db	#-127,#0x00
	.db	#-127,#0x00
	.db	#-127,#0x00
	.db	#-127,#0x00
	.db	#-127,#0x00
	.db	#-127,#0x00
	.db	#-127,#0x00
	.db	#-127,#0x00
	.db	#-127,#0x00
	.db	#-127,#0x00
	.db	#-127,#0x00
	.db	#-127,#0x00
	.db	#-127,#0x00
	.db	#-127,#0x00
	.db	#-127,#0x00
	.db	#-127,#0x00
	.db	#-127,#0x00
	.db	#-127,#0x00
	.db	#-127,#0x00
	.db	#-127,#0x00
	.db	#-127,#0x00
	.db	#-62,#0x00
	.db	0
;demo.c:38: uint8_t tf1[12000] = {0};
	ld	hl,#_tf1
	call	__initrleblock
	.db	#-127,#0x00
	.db	#-127,#0x00
	.db	#-127,#0x00
	.db	#-127,#0x00
	.db	#-127,#0x00
	.db	#-127,#0x00
	.db	#-127,#0x00
	.db	#-127,#0x00
	.db	#-127,#0x00
	.db	#-127,#0x00
	.db	#-127,#0x00
	.db	#-127,#0x00
	.db	#-127,#0x00
	.db	#-127,#0x00
	.db	#-127,#0x00
	.db	#-127,#0x00
	.db	#-127,#0x00
	.db	#-127,#0x00
	.db	#-127,#0x00
	.db	#-127,#0x00
	.db	#-127,#0x00
	.db	#-127,#0x00
	.db	#-127,#0x00
	.db	#-127,#0x00
	.db	#-127,#0x00
	.db	#-127,#0x00
	.db	#-127,#0x00
	.db	#-127,#0x00
	.db	#-127,#0x00
	.db	#-127,#0x00
	.db	#-127,#0x00
	.db	#-127,#0x00
	.db	#-127,#0x00
	.db	#-127,#0x00
	.db	#-127,#0x00
	.db	#-127,#0x00
	.db	#-127,#0x00
	.db	#-127,#0x00
	.db	#-127,#0x00
	.db	#-127,#0x00
	.db	#-127,#0x00
	.db	#-127,#0x00
	.db	#-127,#0x00
	.db	#-127,#0x00
	.db	#-127,#0x00
	.db	#-127,#0x00
	.db	#-127,#0x00
	.db	#-127,#0x00
	.db	#-127,#0x00
	.db	#-127,#0x00
	.db	#-127,#0x00
	.db	#-127,#0x00
	.db	#-127,#0x00
	.db	#-127,#0x00
	.db	#-127,#0x00
	.db	#-127,#0x00
	.db	#-127,#0x00
	.db	#-127,#0x00
	.db	#-127,#0x00
	.db	#-127,#0x00
	.db	#-127,#0x00
	.db	#-127,#0x00
	.db	#-127,#0x00
	.db	#-127,#0x00
	.db	#-127,#0x00
	.db	#-127,#0x00
	.db	#-127,#0x00
	.db	#-127,#0x00
	.db	#-127,#0x00
	.db	#-127,#0x00
	.db	#-127,#0x00
	.db	#-127,#0x00
	.db	#-127,#0x00
	.db	#-127,#0x00
	.db	#-127,#0x00
	.db	#-127,#0x00
	.db	#-127,#0x00
	.db	#-127,#0x00
	.db	#-127,#0x00
	.db	#-127,#0x00
	.db	#-127,#0x00
	.db	#-127,#0x00
	.db	#-127,#0x00
	.db	#-127,#0x00
	.db	#-127,#0x00
	.db	#-127,#0x00
	.db	#-127,#0x00
	.db	#-127,#0x00
	.db	#-127,#0x00
	.db	#-127,#0x00
	.db	#-127,#0x00
	.db	#-127,#0x00
	.db	#-127,#0x00
	.db	#-127,#0x00
	.db	#-62,#0x00
	.db	0
;demo.c:39: uint8_t tf2[12000] = {0};
	ld	hl,#_tf2
	call	__initrleblock
	.db	#-127,#0x00
	.db	#-127,#0x00
	.db	#-127,#0x00
	.db	#-127,#0x00
	.db	#-127,#0x00
	.db	#-127,#0x00
	.db	#-127,#0x00
	.db	#-127,#0x00
	.db	#-127,#0x00
	.db	#-127,#0x00
	.db	#-127,#0x00
	.db	#-127,#0x00
	.db	#-127,#0x00
	.db	#-127,#0x00
	.db	#-127,#0x00
	.db	#-127,#0x00
	.db	#-127,#0x00
	.db	#-127,#0x00
	.db	#-127,#0x00
	.db	#-127,#0x00
	.db	#-127,#0x00
	.db	#-127,#0x00
	.db	#-127,#0x00
	.db	#-127,#0x00
	.db	#-127,#0x00
	.db	#-127,#0x00
	.db	#-127,#0x00
	.db	#-127,#0x00
	.db	#-127,#0x00
	.db	#-127,#0x00
	.db	#-127,#0x00
	.db	#-127,#0x00
	.db	#-127,#0x00
	.db	#-127,#0x00
	.db	#-127,#0x00
	.db	#-127,#0x00
	.db	#-127,#0x00
	.db	#-127,#0x00
	.db	#-127,#0x00
	.db	#-127,#0x00
	.db	#-127,#0x00
	.db	#-127,#0x00
	.db	#-127,#0x00
	.db	#-127,#0x00
	.db	#-127,#0x00
	.db	#-127,#0x00
	.db	#-127,#0x00
	.db	#-127,#0x00
	.db	#-127,#0x00
	.db	#-127,#0x00
	.db	#-127,#0x00
	.db	#-127,#0x00
	.db	#-127,#0x00
	.db	#-127,#0x00
	.db	#-127,#0x00
	.db	#-127,#0x00
	.db	#-127,#0x00
	.db	#-127,#0x00
	.db	#-127,#0x00
	.db	#-127,#0x00
	.db	#-127,#0x00
	.db	#-127,#0x00
	.db	#-127,#0x00
	.db	#-127,#0x00
	.db	#-127,#0x00
	.db	#-127,#0x00
	.db	#-127,#0x00
	.db	#-127,#0x00
	.db	#-127,#0x00
	.db	#-127,#0x00
	.db	#-127,#0x00
	.db	#-127,#0x00
	.db	#-127,#0x00
	.db	#-127,#0x00
	.db	#-127,#0x00
	.db	#-127,#0x00
	.db	#-127,#0x00
	.db	#-127,#0x00
	.db	#-127,#0x00
	.db	#-127,#0x00
	.db	#-127,#0x00
	.db	#-127,#0x00
	.db	#-127,#0x00
	.db	#-127,#0x00
	.db	#-127,#0x00
	.db	#-127,#0x00
	.db	#-127,#0x00
	.db	#-127,#0x00
	.db	#-127,#0x00
	.db	#-127,#0x00
	.db	#-127,#0x00
	.db	#-127,#0x00
	.db	#-127,#0x00
	.db	#-127,#0x00
	.db	#-62,#0x00
	.db	0
;demo.c:48: volatile int vbicount=0;
	ld	iy,#_vbicount
	ld	0 (iy),#0x00
	ld	iy,#_vbicount
	ld	1 (iy),#0x00
;demo.c:49: volatile int tick=0;
	ld	iy,#_tick
	ld	0 (iy),#0x00
	ld	iy,#_tick
	ld	1 (iy),#0x00
;demo.c:226: uint8_t yofff = 0;
	ld	iy,#_yofff
	ld	0 (iy),#0x00
;demo.c:227: uint8_t cc = 0;
	ld	iy,#_cc
	ld	0 (iy),#0x00
;demo.c:228: static int flipper = 0;
	ld	iy,#_flipper
	ld	0 (iy),#0x00
	ld	iy,#_flipper
	ld	1 (iy),#0x00
;demo.c:229: static int ymmmf = 0;
	ld	iy,#_ymmmf
	ld	0 (iy),#0x00
	ld	iy,#_ymmmf
	ld	1 (iy),#0x00
;demo.c:260: char block_init = 0;
	ld	iy,#_block_init
	ld	0 (iy),#0x00
;demo.c:262: int bsx = 0;
	ld	iy,#_bsx
	ld	0 (iy),#0x00
	ld	iy,#_bsx
	ld	1 (iy),#0x00
;demo.c:263: int bsy = 0;
	ld	iy,#_bsy
	ld	0 (iy),#0x00
	ld	iy,#_bsy
	ld	1 (iy),#0x00
;demo.c:264: int btx = 0;
	ld	iy,#_btx
	ld	0 (iy),#0x00
	ld	iy,#_btx
	ld	1 (iy),#0x00
;demo.c:265: int bty = 0;
	ld	iy,#_bty
	ld	0 (iy),#0x00
	ld	iy,#_bty
	ld	1 (iy),#0x00
;demo.c:267: int btab[16] = {0};
	ld	hl,#_btab
	call	__initrleblock
	.db	#-32,#0x00
	.db	0
;demo.c:269: int flof = 0;
	ld	iy,#_flof
	ld	0 (iy),#0x00
	ld	iy,#_flof
	ld	1 (iy),#0x00
;demo.c:318: int linenum = 0;
	ld	iy,#_linenum
	ld	0 (iy),#0x00
	ld	iy,#_linenum
	ld	1 (iy),#0x00
;demo.c:376: uint8_t lx = 0;
	ld	iy,#_lx
	ld	0 (iy),#0x00
;demo.c:377: uint8_t ly = 0;
	ld	iy,#_ly
	ld	0 (iy),#0x00
;demo.c:440: int ff = 0;
	ld	iy,#_ff
	ld	0 (iy),#0x00
	ld	iy,#_ff
	ld	1 (iy),#0x00
;demo.c:441: int twinited = 0;
	ld	iy,#_twinited
	ld	0 (iy),#0x00
	ld	iy,#_twinited
	ld	1 (iy),#0x00
;demo.c:491: int bulbflipper = 1;
	ld	iy,#_bulbflipper
	ld	0 (iy),#0x01
	ld	iy,#_bulbflipper
	ld	1 (iy),#0x00
;demo.c:493: int ff1,ff2 = 0;
	ld	iy,#_ff2
	ld	0 (iy),#0x00
	ld	iy,#_ff2
	ld	1 (iy),#0x00
;demo.c:494: int ender = 212;
	ld	iy,#_ender
	ld	0 (iy),#0xD4
	ld	iy,#_ender
	ld	1 (iy),#0x00
;demo.c:495: int enderdir = -1;
	ld	iy,#_enderdir
	ld	0 (iy),#0xFF
	ld	iy,#_enderdir
	ld	1 (iy),#0xFF
;demo.c:550: static int xo = 0;
	ld	iy,#_xo
	ld	0 (iy),#0x00
	ld	iy,#_xo
	ld	1 (iy),#0x00
;demo.c:551: static int yo = 0;
	ld	iy,#_yo
	ld	0 (iy),#0x00
	ld	iy,#_yo
	ld	1 (iy),#0x00
;demo.c:552: static int po = 0;
	ld	iy,#_po
	ld	0 (iy),#0x00
	ld	iy,#_po
	ld	1 (iy),#0x00
;demo.c:553: static int fffaaa = 0;
	ld	iy,#_fffaaa
	ld	0 (iy),#0x00
	ld	iy,#_fffaaa
	ld	1 (iy),#0x00
;demo.c:555: int anim_init = 0;
	ld	iy,#_anim_init
	ld	0 (iy),#0x00
	ld	iy,#_anim_init
	ld	1 (iy),#0x00
;demo.c:609: uint8_t boxes_init = 0;
	ld	iy,#_boxes_init
	ld	0 (iy),#0x00
;demo.c:610: int buffer = 1;
	ld	iy,#_buffer
	ld	0 (iy),#0x01
	ld	iy,#_buffer
	ld	1 (iy),#0x00
;demo.c:611: int dbly = 0;
	ld	iy,#_dbly
	ld	0 (iy),#0x00
	ld	iy,#_dbly
	ld	1 (iy),#0x00
;demo.c:641: int bx = 256-42;
	ld	iy,#_bx
	ld	0 (iy),#0xD6
	ld	iy,#_bx
	ld	1 (iy),#0x00
;demo.c:642: int by = 192-42;
	ld	iy,#_by
	ld	0 (iy),#0x96
	ld	iy,#_by
	ld	1 (iy),#0x00
;demo.c:643: int bt = 0;
	ld	iy,#_bt
	ld	0 (iy),#0x00
	ld	iy,#_bt
	ld	1 (iy),#0x00
;demo.c:644: int bxx = 0;
	ld	iy,#_bxx
	ld	0 (iy),#0x00
	ld	iy,#_bxx
	ld	1 (iy),#0x00
;demo.c:645: int byy = 0;
	ld	iy,#_byy
	ld	0 (iy),#0x00
	ld	iy,#_byy
	ld	1 (iy),#0x00
;demo.c:646: int bo = 0;
	ld	iy,#_bo
	ld	0 (iy),#0x00
	ld	iy,#_bo
	ld	1 (iy),#0x00
;--------------------------------------------------------
; Home
;--------------------------------------------------------
	.area _HOME
	.area _HOME
;--------------------------------------------------------
; code
;--------------------------------------------------------
	.area _CODE
;demo.c:53: int isNthBitSet (unsigned char c, int n) {
;	---------------------------------
; Function isNthBitSet
; ---------------------------------
_isNthBitSet_start::
_isNthBitSet:
	push	ix
	ld	ix,#0
	add	ix,sp
;demo.c:55: return ((c & mask[n]) != 0);
	ld	a,#<_isNthBitSet_mask_1_1
	add	a,5 (ix)
	ld	c,a
	ld	a,#>_isNthBitSet_mask_1_1
	adc	a,6 (ix)
	ld	b,a
	ld	a,(bc)
	and	a,4 (ix)
	jr	NZ,00103$
	ld	a,#0x01
	jr	00104$
00103$:
	xor	a,a
00104$:
	or	a,a
	sub	a,#0x01
	ld	a,#0x00
	rla
	ld	c,a
	ld	l,c
	ld	h,#0x00
	pop	ix
	ret
_isNthBitSet_end::
_sintabx:
	.dw #0x0078
	.dw #0x007A
	.dw #0x007D
	.dw #0x0080
	.dw #0x0083
	.dw #0x0086
	.dw #0x0089
	.dw #0x008C
	.dw #0x008F
	.dw #0x0092
	.dw #0x0095
	.dw #0x0098
	.dw #0x009A
	.dw #0x009D
	.dw #0x00A0
	.dw #0x00A3
	.dw #0x00A5
	.dw #0x00A8
	.dw #0x00AB
	.dw #0x00AD
	.dw #0x00B0
	.dw #0x00B3
	.dw #0x00B5
	.dw #0x00B8
	.dw #0x00BA
	.dw #0x00BD
	.dw #0x00BF
	.dw #0x00C1
	.dw #0x00C4
	.dw #0x00C6
	.dw #0x00C8
	.dw #0x00CA
	.dw #0x00CC
	.dw #0x00CE
	.dw #0x00D0
	.dw #0x00D2
	.dw #0x00D4
	.dw #0x00D6
	.dw #0x00D8
	.dw #0x00DA
	.dw #0x00DB
	.dw #0x00DD
	.dw #0x00DE
	.dw #0x00E0
	.dw #0x00E1
	.dw #0x00E3
	.dw #0x00E4
	.dw #0x00E5
	.dw #0x00E6
	.dw #0x00E7
	.dw #0x00E8
	.dw #0x00E9
	.dw #0x00EA
	.dw #0x00EB
	.dw #0x00EC
	.dw #0x00ED
	.dw #0x00ED
	.dw #0x00EE
	.dw #0x00EE
	.dw #0x00EF
	.dw #0x00EF
	.dw #0x00EF
	.dw #0x00EF
	.dw #0x00EF
	.dw #0x00F0
	.dw #0x00EF
	.dw #0x00EF
	.dw #0x00EF
	.dw #0x00EF
	.dw #0x00EF
	.dw #0x00EE
	.dw #0x00EE
	.dw #0x00ED
	.dw #0x00ED
	.dw #0x00EC
	.dw #0x00EB
	.dw #0x00EA
	.dw #0x00E9
	.dw #0x00E8
	.dw #0x00E7
	.dw #0x00E6
	.dw #0x00E5
	.dw #0x00E4
	.dw #0x00E3
	.dw #0x00E1
	.dw #0x00E0
	.dw #0x00DE
	.dw #0x00DD
	.dw #0x00DB
	.dw #0x00DA
	.dw #0x00D8
	.dw #0x00D6
	.dw #0x00D4
	.dw #0x00D2
	.dw #0x00D0
	.dw #0x00CE
	.dw #0x00CC
	.dw #0x00CA
	.dw #0x00C8
	.dw #0x00C6
	.dw #0x00C4
	.dw #0x00C1
	.dw #0x00BF
	.dw #0x00BD
	.dw #0x00BA
	.dw #0x00B8
	.dw #0x00B5
	.dw #0x00B3
	.dw #0x00B0
	.dw #0x00AD
	.dw #0x00AB
	.dw #0x00A8
	.dw #0x00A5
	.dw #0x00A3
	.dw #0x00A0
	.dw #0x009D
	.dw #0x009A
	.dw #0x0098
	.dw #0x0095
	.dw #0x0092
	.dw #0x008F
	.dw #0x008C
	.dw #0x0089
	.dw #0x0086
	.dw #0x0083
	.dw #0x0080
	.dw #0x007D
	.dw #0x007A
	.dw #0x0078
	.dw #0x0075
	.dw #0x0072
	.dw #0x006F
	.dw #0x006C
	.dw #0x0069
	.dw #0x0066
	.dw #0x0063
	.dw #0x0060
	.dw #0x005D
	.dw #0x005A
	.dw #0x0057
	.dw #0x0055
	.dw #0x0052
	.dw #0x004F
	.dw #0x004C
	.dw #0x004A
	.dw #0x0047
	.dw #0x0044
	.dw #0x0042
	.dw #0x003F
	.dw #0x003C
	.dw #0x003A
	.dw #0x0037
	.dw #0x0035
	.dw #0x0032
	.dw #0x0030
	.dw #0x002E
	.dw #0x002B
	.dw #0x0029
	.dw #0x0027
	.dw #0x0025
	.dw #0x0023
	.dw #0x0021
	.dw #0x001F
	.dw #0x001D
	.dw #0x001B
	.dw #0x0019
	.dw #0x0017
	.dw #0x0015
	.dw #0x0014
	.dw #0x0012
	.dw #0x0011
	.dw #0x000F
	.dw #0x000E
	.dw #0x000C
	.dw #0x000B
	.dw #0x000A
	.dw #0x0009
	.dw #0x0008
	.dw #0x0007
	.dw #0x0006
	.dw #0x0005
	.dw #0x0004
	.dw #0x0003
	.dw #0x0002
	.dw #0x0002
	.dw #0x0001
	.dw #0x0001
	.dw #0x0000
	.dw #0x0000
	.dw #0x0000
	.dw #0x0000
	.dw #0x0000
	.dw #0x0000
	.dw #0x0000
	.dw #0x0000
	.dw #0x0000
	.dw #0x0000
	.dw #0x0000
	.dw #0x0001
	.dw #0x0001
	.dw #0x0002
	.dw #0x0002
	.dw #0x0003
	.dw #0x0004
	.dw #0x0005
	.dw #0x0006
	.dw #0x0007
	.dw #0x0008
	.dw #0x0009
	.dw #0x000A
	.dw #0x000B
	.dw #0x000C
	.dw #0x000E
	.dw #0x000F
	.dw #0x0011
	.dw #0x0012
	.dw #0x0014
	.dw #0x0015
	.dw #0x0017
	.dw #0x0019
	.dw #0x001B
	.dw #0x001D
	.dw #0x001F
	.dw #0x0021
	.dw #0x0023
	.dw #0x0025
	.dw #0x0027
	.dw #0x0029
	.dw #0x002B
	.dw #0x002E
	.dw #0x0030
	.dw #0x0032
	.dw #0x0035
	.dw #0x0037
	.dw #0x003A
	.dw #0x003C
	.dw #0x003F
	.dw #0x0042
	.dw #0x0044
	.dw #0x0047
	.dw #0x004A
	.dw #0x004C
	.dw #0x004F
	.dw #0x0052
	.dw #0x0055
	.dw #0x0057
	.dw #0x005A
	.dw #0x005D
	.dw #0x0060
	.dw #0x0063
	.dw #0x0066
	.dw #0x0069
	.dw #0x006C
	.dw #0x006F
	.dw #0x0072
	.dw #0x0075
;demo.c:62: void my_isr(void) interrupt
;	---------------------------------
; Function my_isr
; ---------------------------------
_my_isr_start::
_my_isr:
	push	af
	push	bc
	push	de
	push	hl
	push	iy
;demo.c:64: DI;
		di 
;demo.c:66: READ_VDP_STATUS;
		in a,(#0x99) 
;demo.c:68: PLY_Play();
	call	_PLY_Play
;demo.c:69: PLY_SendRegisters();
	call	_PLY_SendRegisters
;demo.c:71: vbicount+=1;
	ld	iy,#_vbicount
	inc	0 (iy)
	jr	NZ,00103$
	ld	iy,#_vbicount
	inc	1 (iy)
00103$:
;demo.c:72: tick++;
	ld	iy,#_tick
	inc	0 (iy)
	jr	NZ,00104$
	ld	iy,#_tick
	inc	1 (iy)
00104$:
;demo.c:74: EI;
		ei 
	pop	iy
	pop	hl
	pop	de
	pop	bc
	pop	af
	reti
_my_isr_end::
;demo.c:77: void color_isr(void) interrupt
;	---------------------------------
; Function color_isr
; ---------------------------------
_color_isr_start::
_color_isr:
	push	af
	push	bc
	push	de
	push	hl
	push	iy
;demo.c:79: DI;
		di 
;demo.c:81: if(isNthBitSet(vdp2_status(1),0)) {
	ld	a,#0x01
	push	af
	inc	sp
	call	_vdp2_status
	inc	sp
	ld	c,l
	ld	hl,#0x0000
	push	hl
	ld	a,c
	push	af
	inc	sp
	call	_isNthBitSet
	pop	af
	inc	sp
	ld	b,h
	ld	c,l
	ld	a,c
	or	a,b
	jr	Z,00102$
;demo.c:82: vdp_register(VDP_VOFFSET,sintab[vbicount & 255]);
	ld	hl,#_vbicount + 0
	ld	c,(hl)
	ld	b,#0x00
	ld	hl,#_sintab
	add	hl,bc
	ld	a,(hl)
	push	af
	inc	sp
	ld	a,#0x17
	push	af
	inc	sp
	call	_vdp_register
	pop	af
;demo.c:83: READ_VDP_STATUS;
		in a,(#0x99) 
	jr	00103$
00102$:
;demo.c:86: READ_VDP_STATUS;
		in a,(#0x99) 
;demo.c:87: vbicount++;
	ld	iy,#_vbicount
	inc	0 (iy)
	jr	NZ,00107$
	ld	iy,#_vbicount
	inc	1 (iy)
00107$:
;demo.c:90: PLY_Play();
	call	_PLY_Play
;demo.c:91: PLY_SendRegisters();
	call	_PLY_SendRegisters
00103$:
;demo.c:94: EI;
		ei 
	pop	iy
	pop	hl
	pop	de
	pop	bc
	pop	af
	reti
_color_isr_end::
;demo.c:101: uint8_t ge5_load(char *file_name, uint8_t vramh, uint16_t vraml) {
;	---------------------------------
; Function ge5_load
; ---------------------------------
_ge5_load_start::
_ge5_load:
	push	ix
	ld	ix,#0
	add	ix,sp
	ld	hl,#-46
	add	hl,sp
	ld	sp,hl
;demo.c:105: memset((uint8_t *) &f, 0, sizeof(fcb));
	ld	hl,#0x0000
	add	hl,sp
	ld	c,l
	ld	b,h
	ld	hl,#0x002E
	push	hl
	ld	a,#0x00
	push	af
	inc	sp
	push	bc
	call	_memset
	pop	af
	pop	af
	inc	sp
;demo.c:107: f.record_size = 128;
	ld	hl,#0x0000
	add	hl,sp
	ld	c,l
	ld	b,h
	ld	hl,#0x000F
	add	hl,bc
	ex	de,hl
	ld	a,#0x80
	ld	(de),a
;demo.c:108: f.drive = 0;
	ld	a,#0x00
	ld	(bc),a
;demo.c:110: memcpy(f.name, file_name, 11);
	ld	e,4 (ix)
	ld	d,5 (ix)
	inc	bc
	ld	hl,#0x000B
	push	hl
	push	de
	push	bc
	call	_memcpy
	pop	af
	pop	af
	pop	af
;demo.c:112: if (open(&f) != 0) return 0;
	ld	hl,#0x0000
	add	hl,sp
	push	hl
	call	_open
	pop	af
	xor	a,a
	or	a,l
	jr	Z,00102$
	ld	l,#0x00
	jp	00114$
00102$:
;demo.c:113: vdp_set_write_address(vramh, vraml);
	ld	l,7 (ix)
	ld	h,8 (ix)
	push	hl
	ld	a,6 (ix)
	push	af
	inc	sp
	call	_vdp_set_write_address
	pop	af
	inc	sp
;demo.c:115: for (i = 0; i < 213; i++) {
	ld	c,#0x00
00110$:
	ld	a,c
	sub	a,#0xD5
	jp	NC,00113$
;demo.c:116: if (block_set_data_ptr(scratch) != 0) return 0;
	push	bc
	ld	hl,#_scratch
	push	hl
	call	_block_set_data_ptr
	pop	af
	ld	a,l
	pop	bc
	ld	b,a
	or	a,a
	jr	Z,00104$
	ld	l,#0x00
	jp	00114$
00104$:
;demo.c:117: if (block_read(&f) != 0) return 0;
	ld	hl,#0x0000
	add	hl,sp
	push	bc
	push	hl
	call	_block_read
	pop	af
	ld	a,l
	pop	bc
	ld	b,a
	or	a,a
	jr	Z,00106$
	ld	l,#0x00
	jr	00114$
00106$:
;demo.c:119: if (i == 0) vdp_load_screen(scratch + 7, 121);   // to skip GE5 header
	xor	a,a
	or	a,c
	jr	NZ,00108$
	ld	de,#_scratch + 7
	push	bc
	ld	a,#0x79
	push	af
	inc	sp
	push	de
	call	_vdp_load_screen
	pop	af
	inc	sp
	pop	bc
	jr	00112$
00108$:
;demo.c:120: else vdp_load_screen(scratch, 128);
	push	bc
	ld	a,#0x80
	push	af
	inc	sp
	ld	hl,#_scratch
	push	hl
	call	_vdp_load_screen
	pop	af
	inc	sp
	pop	bc
00112$:
;demo.c:115: for (i = 0; i < 213; i++) {
	inc	c
	jp	00110$
00113$:
;demo.c:123: close(&f);
	ld	hl,#0x0000
	add	hl,sp
	push	hl
	call	_close
	pop	af
;demo.c:125: return 1;
	ld	l,#0x01
00114$:
	ld	sp,ix
	pop	ix
	ret
_ge5_load_end::
;demo.c:128: void scratch_clear() {
;	---------------------------------
; Function scratch_clear
; ---------------------------------
_scratch_clear_start::
_scratch_clear:
;demo.c:129: memset((uint8_t *) &scratch, 0, 128);
	ld	hl,#0x0080
	push	hl
	ld	a,#0x00
	push	af
	inc	sp
	ld	hl,#_scratch
	push	hl
	call	_memset
	pop	af
	pop	af
	inc	sp
	ret
_scratch_clear_end::
;demo.c:132: uint8_t pal_load(char *file_name, uint8_t ss) {
;	---------------------------------
; Function pal_load
; ---------------------------------
_pal_load_start::
_pal_load:
	push	ix
	ld	ix,#0
	add	ix,sp
	ld	hl,#-46
	add	hl,sp
	ld	sp,hl
;demo.c:135: memset((uint8_t *) &f, 0, sizeof(fcb));
	ld	hl,#0x0000
	add	hl,sp
	ld	c,l
	ld	b,h
	ld	hl,#0x002E
	push	hl
	ld	a,#0x00
	push	af
	inc	sp
	push	bc
	call	_memset
	pop	af
	pop	af
	inc	sp
;demo.c:136: scratch_clear();
	call	_scratch_clear
;demo.c:138: f.record_size = ss;
	ld	hl,#0x0000
	add	hl,sp
	ld	c,l
	ld	b,h
	ld	hl,#0x000F
	add	hl,bc
	ex	de,hl
	ld	a,6 (ix)
	ld	(de),a
;demo.c:139: f.drive = 0;
	ld	a,#0x00
	ld	(bc),a
;demo.c:141: memcpy(f.name, file_name, 11);
	ld	e,4 (ix)
	ld	d,5 (ix)
	inc	bc
	ld	hl,#0x000B
	push	hl
	push	de
	push	bc
	call	_memcpy
	pop	af
	pop	af
	pop	af
;demo.c:143: if (open(&f) != 0) return 0;
	ld	hl,#0x0000
	add	hl,sp
	push	hl
	call	_open
	pop	af
	xor	a,a
	or	a,l
	jr	Z,00102$
	ld	l,#0x00
	jr	00107$
00102$:
;demo.c:144: if (block_set_data_ptr(scratch) != 0) return 0;
	ld	hl,#_scratch
	push	hl
	call	_block_set_data_ptr
	pop	af
	xor	a,a
	or	a,l
	jr	Z,00104$
	ld	l,#0x00
	jr	00107$
00104$:
;demo.c:145: if (block_read(&f) != 0) return 0;
	ld	hl,#0x0000
	add	hl,sp
	push	hl
	call	_block_read
	pop	af
	xor	a,a
	or	a,l
	jr	Z,00106$
	ld	l,#0x00
	jr	00107$
00106$:
;demo.c:147: memcpy(cur_palette, scratch+7, ss);
	ld	c,6 (ix)
	ld	b,#0x00
	ld	de,#_scratch + 7
	push	bc
	push	de
	ld	hl,#_cur_palette
	push	hl
	call	_memcpy
	pop	af
	pop	af
	pop	af
;demo.c:149: close(&f);
	ld	hl,#0x0000
	add	hl,sp
	push	hl
	call	_close
	pop	af
;demo.c:150: return 1;
	ld	l,#0x01
00107$:
	ld	sp,ix
	pop	ix
	ret
_pal_load_end::
;demo.c:154: void pause() {
;	---------------------------------
; Function pause
; ---------------------------------
_pause_start::
_pause:
;demo.c:155: uint8_t i,j,k = 0;
;demo.c:156: for (i = 0; i < 255; i++) {	
	ld	bc,#0x0000
00104$:
	ld	a,b
	sub	a,#0xFF
	ret	NC
;demo.c:157: for (j = 0; j < 255; j++) {
	ld	e,c
	ld	d,#0xFF
00103$:
;demo.c:158: k++;
	inc	e
	dec	d
;demo.c:157: for (j = 0; j < 255; j++) {
	xor	a,a
	or	a,d
	jr	NZ,00103$
;demo.c:156: for (i = 0; i < 255; i++) {	
	ld	c,e
	inc	b
	jr	00104$
_pause_end::
;demo.c:164: uint8_t raw_load(char *file_name, int size, char* buffer) {
;	---------------------------------
; Function raw_load
; ---------------------------------
_raw_load_start::
_raw_load:
	push	ix
	ld	ix,#0
	add	ix,sp
	ld	hl,#-46
	add	hl,sp
	ld	sp,hl
;demo.c:169: memset((uint8_t *) &f, 0, sizeof(fcb));
	ld	hl,#0x0000
	add	hl,sp
	ld	c,l
	ld	b,h
	ld	hl,#0x002E
	push	hl
	ld	a,#0x00
	push	af
	inc	sp
	push	bc
	call	_memset
	pop	af
	pop	af
	inc	sp
;demo.c:170: scratch_clear();
	call	_scratch_clear
;demo.c:172: f.record_size = 128;
	ld	hl,#0x0000
	add	hl,sp
	ld	c,l
	ld	b,h
	ld	hl,#0x000F
	add	hl,bc
	ex	de,hl
	ld	a,#0x80
	ld	(de),a
;demo.c:173: f.drive = 0;
	ld	a,#0x00
	ld	(bc),a
;demo.c:175: memcpy(f.name, file_name, 11);
	ld	e,4 (ix)
	ld	d,5 (ix)
	inc	bc
	ld	hl,#0x000B
	push	hl
	push	de
	push	bc
	call	_memcpy
	pop	af
	pop	af
	pop	af
;demo.c:177: if (open(&f) != 0) return 0;
	ld	hl,#0x0000
	add	hl,sp
	push	hl
	call	_open
	pop	af
	xor	a,a
	or	a,l
	jr	Z,00116$
	ld	l,#0x00
	jp	00110$
;demo.c:179: while(total < size) {
00116$:
	ld	bc,#0x0000
00107$:
	ld	a,c
	sub	a,6 (ix)
	ld	a,b
	sbc	a,7 (ix)
	jp	P,00109$
;demo.c:180: if (block_set_data_ptr(scratch) != 0) return 0;
	push	bc
	ld	hl,#_scratch
	push	hl
	call	_block_set_data_ptr
	pop	af
	ld	e,l
	pop	bc
	xor	a,a
	or	a,e
	jr	Z,00104$
	ld	l,#0x00
	jr	00110$
00104$:
;demo.c:181: if (block_read(&f) != 0) return 0;
	ld	hl,#0x0000
	add	hl,sp
	push	bc
	push	hl
	call	_block_read
	pop	af
	ld	e,l
	pop	bc
	xor	a,a
	or	a,e
	jr	Z,00106$
	ld	l,#0x00
	jr	00110$
00106$:
;demo.c:183: memcpy(buffer+total,scratch,incr);
	ld	a,8 (ix)
	add	a,c
	ld	e,a
	ld	a,9 (ix)
	adc	a,b
	ld	d,a
	push	bc
	ld	hl,#0x0080
	push	hl
	ld	hl,#_scratch
	push	hl
	push	de
	call	_memcpy
	pop	af
	pop	af
	pop	af
	pop	bc
;demo.c:185: total+=incr;
	ld	hl,#0x0080
	add	hl,bc
	ld	c,l
	ld	b,h
	jp	00107$
00109$:
;demo.c:188: close(&f);
	ld	hl,#0x0000
	add	hl,sp
	push	hl
	call	_close
	pop	af
;demo.c:190: return 1;
	ld	l,#0x01
00110$:
	ld	sp,ix
	pop	ix
	ret
_raw_load_end::
;demo.c:193: void pck_load(char *file_name, int size, uint16_t address, int vram_offset) {
;	---------------------------------
; Function pck_load
; ---------------------------------
_pck_load_start::
_pck_load:
	push	ix
	ld	ix,#0
	add	ix,sp
;demo.c:194: memset((uint8_t *) &packbuffer, 0, size);
	ld	c,6 (ix)
	ld	b,7 (ix)
	push	bc
	push	bc
	ld	a,#0x00
	push	af
	inc	sp
	ld	hl,#_packbuffer
	push	hl
	call	_memset
	pop	af
	pop	af
	inc	sp
	pop	bc
;demo.c:195: raw_load(file_name, size, packbuffer);
	ld	hl,#_packbuffer
	push	hl
	push	bc
	ld	l,4 (ix)
	ld	h,5 (ix)
	push	hl
	call	_raw_load
	pop	af
	pop	af
	pop	af
;demo.c:196: bitbuster(packbuffer,address,vram_offset);
	ld	a,10 (ix)
	push	af
	inc	sp
	ld	l,8 (ix)
	ld	h,9 (ix)
	push	hl
	ld	hl,#_packbuffer
	push	hl
	call	_bitbuster
	pop	af
	pop	af
	inc	sp
	pop	ix
	ret
_pck_load_end::
;demo.c:199: void fadein() {
;	---------------------------------
; Function fadein
; ---------------------------------
_fadein_start::
_fadein:
	push	ix
	ld	ix,#0
	add	ix,sp
	push	af
;demo.c:202: if (tick < 4) return;
	ld	a,(#_tick+0)
	sub	a,#0x04
	ld	a,(#_tick+1)
	sbc	a,#0x00
	jp	P,00102$
	jp	00113$
00102$:
;demo.c:204: tick = 0;
	ld	hl,#_tick + 0
	ld	(hl), #0x00
	ld	hl,#_tick + 1
	ld	(hl), #0x00
;demo.c:206: for(i = 0; i < 32; i+=2) {
	ld	c,#0x00
00109$:
	ld	a,c
	sub	a,#0x20
	jp	NC,00112$
;demo.c:207: uint8_t r = scratch[i] >> 4;
	ld	a,#<_scratch
	add	a,c
	ld	e,a
	ld	a,#>_scratch
	adc	a,#0x00
	ld	d,a
	ld	a,(de)
	ld	b,a
	ld	e,b
	srl	e
	srl	e
	srl	e
	srl	e
;demo.c:208: uint8_t b = scratch[i] & 0xf;
	ld	a,b
	and	a,#0x0F
	ld	-1 (ix),a
;demo.c:209: uint8_t g = scratch[i+1];
	ld	d,c
	inc	d
	ld	a,#<_scratch
	add	a,d
	ld	l,a
	ld	a,#>_scratch
	adc	a,#0x00
	ld	h,a
	ld	d,(hl)
	ld	-2 (ix),d
;demo.c:211: if (r < (cur_palette[i] >> 4)) r++;
	ld	a,#<_cur_palette
	add	a,c
	ld	l,a
	ld	a,#>_cur_palette
	adc	a,#0x00
	ld	h,a
	ld	d,(hl)
	srl	d
	srl	d
	srl	d
	srl	d
	ld	a,e
	sub	a,d
	jr	NC,00104$
	inc	e
00104$:
;demo.c:212: if (b < (cur_palette[i] & 0xf)) b++;
	ld	a,#<_cur_palette
	add	a,c
	ld	l,a
	ld	a,#>_cur_palette
	adc	a,#0x00
	ld	h,a
	ld	a,(hl)
	and	a,#0x0F
	ld	b,a
	ld	a,-1 (ix)
	sub	a,b
	jr	NC,00106$
	inc	-1 (ix)
00106$:
;demo.c:214: scratch[i] = (r << 4) | b;
	ld	a,#<_scratch
	add	a,c
	ld	b,a
	ld	a,#>_scratch
	adc	a,#0x00
	ld	d,a
	ld	a,e
	rlca
	rlca
	rlca
	rlca
	and	a,#0xF0
	or	a,-1 (ix)
	ld	l,b
	ld	h,d
	ld	(hl),a
;demo.c:215: if (g < cur_palette[i+1]) scratch[i+1]++;
	ld	b,c
	inc	b
	ld	a,#<_cur_palette
	add	a,b
	ld	e,a
	ld	a,#>_cur_palette
	adc	a,#0x00
	ld	d,a
	ld	a,(de)
	ld	e,a
	ld	a,-2 (ix)
	sub	a,e
	jr	NC,00111$
	ld	a,#<_scratch
	add	a,b
	ld	b,a
	ld	a,#>_scratch
	adc	a,#0x00
	ld	e,a
	ld	l,b
	ld	h,a
	ld	a,(hl)
	inc	a
	ld	l,b
	ld	h,e
	ld	(hl),a
00111$:
;demo.c:206: for(i = 0; i < 32; i+=2) {
	inc	c
	inc	c
	jp	00109$
00112$:
;demo.c:219: vdp_load_palette(scratch);
	ld	hl,#_scratch
	push	hl
	call	_vdp_load_palette
	pop	af
00113$:
	ld	sp,ix
	pop	ix
	ret
_fadein_end::
;demo.c:231: void do_ymmm() {
;	---------------------------------
; Function do_ymmm
; ---------------------------------
_do_ymmm_start::
_do_ymmm:
	push	ix
	ld	ix,#0
	add	ix,sp
	push	af
;demo.c:235: if (tick > 32) { tick = 0; flipper++;}
	ld	a,#0x20
	ld	iy,#_tick
	sub	a,0 (iy)
	ld	a,#0x00
	ld	iy,#_tick
	sbc	a,1 (iy)
	jp	P,00102$
	ld	hl,#_tick + 0
	ld	(hl), #0x00
	ld	hl,#_tick + 1
	ld	(hl), #0x00
	ld	iy,#_flipper
	inc	0 (iy)
	jr	NZ,00115$
	ld	iy,#_flipper
	inc	1 (iy)
00115$:
00102$:
;demo.c:236: if (flipper > 10) { flipper = 0;}
	ld	a,#0x0A
	ld	iy,#_flipper
	sub	a,0 (iy)
	ld	a,#0x00
	ld	iy,#_flipper
	sbc	a,1 (iy)
	jp	P,00104$
	ld	hl,#_flipper + 0
	ld	(hl), #0x00
	ld	hl,#_flipper + 1
	ld	(hl), #0x00
00104$:
;demo.c:238: ymmmf++;
	ld	iy,#_ymmmf
	inc	0 (iy)
	jr	NZ,00116$
	ld	iy,#_ymmmf
	inc	1 (iy)
00116$:
;demo.c:239: for (yofff = 0; yofff<212-step;yofff+=step) {
	ld	hl,#_yofff + 0
	ld	(hl), #0x00
00105$:
	ld	hl,#_yofff + 0
	ld	c,(hl)
	ld	b,#0x00
	ld	a,c
	sub	a,#0xD2
	ld	a,b
	sbc	a,#0x00
	jp	P,00109$
;demo.c:240: xo = (sintabx[(yofff+ymmmf) & 255]);
	ld	hl,#_ymmmf
	ld	a,c
	add	a,(hl)
	ld	e,a
	ld	a,b
	inc	hl
	adc	a,(hl)
	ld	d,#0x00
	sla	e
	rl	d
	ld	hl,#_sintabx
	add	hl,de
	ld	e,(hl)
	inc	hl
	ld	d,(hl)
	ld	-2 (ix),e
	ld	-1 (ix),d
;demo.c:243: cmd.source_x = 0;
	ld	hl,#_cmd
	ld	(hl),#0x00
	inc	hl
	ld	(hl),#0x00
;demo.c:244: cmd.source_y = 0+yofff;
	ld	de,#_cmd + 2
	ex	de,hl
	ld	(hl),c
	inc	hl
	ld	(hl),b
;demo.c:245: cmd.dest_x = xo;
	ld	de,#_cmd + 4
	ex	de,hl
	ld	a,-2 (ix)
	ld	(hl),a
	inc	hl
	ld	a,-1 (ix)
	ld	(hl),a
;demo.c:246: cmd.dest_y = 3+yofff;
	ld	de,#_cmd + 6
	inc	bc
	inc	bc
	inc	bc
	ld	l,e
	ld	h,d
	ld	(hl),c
	inc	hl
	ld	(hl),b
;demo.c:247: cmd.size_x = 256;
	ld	hl, #_cmd + 8
	ld	(hl),#0x00
	inc	hl
	ld	(hl),#0x01
;demo.c:248: cmd.size_y = 1;
	ld	hl, #_cmd + 10
	ld	(hl),#0x01
	inc	hl
	ld	(hl),#0x00
;demo.c:249: cmd.data = 0;
;demo.c:250: cmd.argument = 0;
	ld	a,#0x00
	ld	(#_cmd + 12),a
	ld	(#_cmd + 13),a
;demo.c:251: cmd.command = 0xD0;
	ld	a,#0xD0
	ld	(#_cmd + 14),a
;demo.c:254: vdp_copier(&cmd);
	ld	hl,#_cmd
	push	hl
	call	_vdp_copier
	pop	af
;demo.c:239: for (yofff = 0; yofff<212-step;yofff+=step) {
	ld	hl,#_yofff + 0
	ld	c,(hl)
	ld	hl,#_yofff
	ld	a,c
	add	a,#0x02
	ld	(hl),a
	jp	00105$
00109$:
	ld	sp,ix
	pop	ix
	ret
_do_ymmm_end::
;demo.c:271: void do_blocks() {
;	---------------------------------
; Function do_blocks
; ---------------------------------
_do_blocks_start::
_do_blocks:
	push	ix
	ld	ix,#0
	add	ix,sp
	ld	hl,#-6
	add	hl,sp
	ld	sp,hl
;demo.c:273: int ys = 0;
	ld	-4 (ix),#0x00
	ld	-3 (ix),#0x00
;demo.c:274: int ye = 0;
	ld	-6 (ix),#0x00
	ld	-5 (ix),#0x00
;demo.c:276: vdp_register(VDP_VOFFSET,0);
	ld	hl,#0x0017
	push	hl
	call	_vdp_register
	pop	af
;demo.c:278: if (block_init == 0) {
	xor	a,a
	ld	iy,#_block_init
	or	a,0 (iy)
	jp	NZ,00108$
;demo.c:280: vdp_set_screen5();
	call	_vdp_set_screen5
;demo.c:282: vdp_register(2, 0x5F);
	ld	hl,#0x5F02
	push	hl
	call	_vdp_register
	pop	af
;demo.c:284: for(i=0;i<16;i++) btab[i] = i*16;
	ld	-2 (ix),#0x00
	ld	-1 (ix),#0x00
00110$:
	ld	a,-2 (ix)
	sub	a,#0x10
	ld	a,-1 (ix)
	sbc	a,#0x00
	jp	P,00113$
	ld	c,-2 (ix)
	ld	b,-1 (ix)
	sla	c
	rl	b
	ld	hl,#_btab
	add	hl,bc
	ld	c,l
	ld	b,h
	ld	e,-2 (ix)
	ld	d,-1 (ix)
	sla	e
	rl	d
	sla	e
	rl	d
	sla	e
	rl	d
	sla	e
	rl	d
	ld	l,c
	ld	h,b
	ld	(hl),e
	inc	hl
	ld	(hl),d
	inc	-2 (ix)
	jr	NZ,00139$
	inc	-1 (ix)
00139$:
	jr	00110$
00113$:
;demo.c:285: vdp_load_palette(block_palette);
	ld	hl,#_block_palette
	push	hl
	call	_vdp_load_palette
	pop	af
;demo.c:287: block_init = 1;
	ld	hl,#_block_init + 0
	ld	(hl), #0x01
	jp	00122$
00108$:
;demo.c:291: if (flof == 0) { ys = 0; ye = 8; }
	ld	a,(#_flof+0)
	ld	iy,#_flof
	or	a,1 (iy)
	jr	NZ,00102$
	ld	-4 (ix),#0x00
	ld	-3 (ix),#0x00
	ld	-6 (ix),#0x08
	ld	-5 (ix),#0x00
00102$:
;demo.c:292: if (flof == 1) { ys = 8; ye = 16; }
	ld	a,(#_flof+0)
	sub	a,#0x01
	jr	NZ,00140$
	ld	a,(#_flof+1)
	or	a,a
	jr	Z,00141$
00140$:
	jr	00104$
00141$:
	ld	-4 (ix),#0x08
	ld	-3 (ix),#0x00
	ld	-6 (ix),#0x10
	ld	-5 (ix),#0x00
00104$:
;demo.c:294: for(bty=3;bty<11;bty++) {
	ld	iy,#_bty
	ld	0 (iy),#0x03
	ld	iy,#_bty
	ld	1 (iy),#0x00
00118$:
	ld	a,(#_bty+0)
	sub	a,#0x0B
	ld	a,(#_bty+1)
	sbc	a,#0x00
	jp	P,00121$
;demo.c:295: for(btx=ys;btx<ye;btx++) {
	ld	a,-4 (ix)
	ld	iy,#_btx
	ld	0 (iy),a
	ld	a,-3 (ix)
	ld	iy,#_btx
	ld	1 (iy),a
00114$:
	ld	a,(#_btx+0)
	sub	a,-6 (ix)
	ld	a,(#_btx+1)
	sbc	a,-5 (ix)
	jp	P,00120$
;demo.c:296: bsx = (PLY_PSGReg8 & PLY_PSGReg9 | PLY_PSGReg10)>>1;
	ld	a,(#_PLY_PSGReg8+0)
	ld	iy,#_PLY_PSGReg9
	and	a,0 (iy)
	ld	hl,#_PLY_PSGReg10 + 0
	or	a,(hl)
	ld	c,a
	srl	c
	ld	hl,#_bsx + 0
	ld	(hl), c
	ld	hl,#_bsx + 1
	ld	(hl), #0x00
;demo.c:297: bsy = PLY_PSGReg10;
	ld	a,(#_PLY_PSGReg10+0)
	ld	hl,#_bsy + 0
	ld	(hl), a
	ld	hl,#_bsy + 1
	ld	(hl), #0x00
;demo.c:298: cmd.source_x = btab[bsx];
	ld	hl,#_bsx + 0
	ld	c,(hl)
	ld	hl,#_bsx + 1
	ld	b,(hl)
	sla	c
	rl	b
	ld	hl,#_btab
	add	hl,bc
	ld	c,(hl)
	inc	hl
	ld	b,(hl)
	ld	hl,#_cmd
	ld	(hl),c
	inc	hl
	ld	(hl),b
;demo.c:299: cmd.source_y = 768+btab[bsy];
	ld	bc,#_cmd + 2
	ld	hl,#_bsy + 0
	ld	e,(hl)
	ld	hl,#_bsy + 1
	ld	d,(hl)
	sla	e
	rl	d
	ld	hl,#_btab
	add	hl,de
	ld	e,(hl)
	inc	hl
	ld	d,(hl)
	ld	hl,#0x0300
	add	hl,de
	ex	de,hl
	ld	l,c
	ld	h,b
	ld	(hl),e
	inc	hl
	ld	(hl),d
;demo.c:300: cmd.dest_x = btab[btx];
	ld	bc,#_cmd + 4
	ld	hl,#_btx + 0
	ld	e,(hl)
	ld	hl,#_btx + 1
	ld	d,(hl)
	sla	e
	rl	d
	ld	hl,#_btab
	add	hl,de
	ld	e,(hl)
	inc	hl
	ld	d,(hl)
	ld	l,c
	ld	h,b
	ld	(hl),e
	inc	hl
	ld	(hl),d
;demo.c:301: cmd.dest_y = 512+btab[bty];
	ld	bc,#_cmd + 6
	ld	hl,#_bty + 0
	ld	e,(hl)
	ld	hl,#_bty + 1
	ld	d,(hl)
	sla	e
	rl	d
	ld	hl,#_btab
	add	hl,de
	ld	e,(hl)
	inc	hl
	ld	d,(hl)
	ld	hl,#0x0200
	add	hl,de
	ex	de,hl
	ld	l,c
	ld	h,b
	ld	(hl),e
	inc	hl
	ld	(hl),d
;demo.c:302: cmd.size_x = 16;
	ld	hl, #_cmd + 8
	ld	(hl),#0x10
	inc	hl
	ld	(hl),#0x00
;demo.c:303: cmd.size_y = 16;
	ld	hl, #_cmd + 10
	ld	(hl),#0x10
	inc	hl
	ld	(hl),#0x00
;demo.c:304: cmd.data = 0;
;demo.c:305: cmd.argument = 0x00;
	ld	a,#0x00
	ld	(#_cmd + 12),a
	ld	(#_cmd + 13),a
;demo.c:306: cmd.command = 0xD0;
	ld	a,#0xD0
	ld	(#_cmd + 14),a
;demo.c:307: vdp_copier(&cmd);
	ld	hl,#_cmd
	push	hl
	call	_vdp_copier
	pop	af
;demo.c:295: for(btx=ys;btx<ye;btx++) {
	ld	iy,#_btx
	inc	0 (iy)
	jr	NZ,00150$
	ld	iy,#_btx
	inc	1 (iy)
00150$:
	jp	00114$
00120$:
;demo.c:294: for(bty=3;bty<11;bty++) {
	ld	iy,#_bty
	inc	0 (iy)
	jr	NZ,00151$
	ld	iy,#_bty
	inc	1 (iy)
00151$:
	jp	00118$
00121$:
;demo.c:311: flof++;
	ld	iy,#_flof
	inc	0 (iy)
	jr	NZ,00152$
	ld	iy,#_flof
	inc	1 (iy)
00152$:
;demo.c:312: if (flof == 2) flof = 0;
	ld	a,(#_flof+0)
	sub	a,#0x02
	jr	NZ,00153$
	ld	a,(#_flof+1)
	or	a,a
	jr	Z,00154$
00153$:
	jr	00122$
00154$:
	ld	hl,#_flof + 0
	ld	(hl), #0x00
	ld	hl,#_flof + 1
	ld	(hl), #0x00
00122$:
	ld	sp,ix
	pop	ix
	ret
_do_blocks_end::
;demo.c:320: void raster_effu() {
;	---------------------------------
; Function raster_effu
; ---------------------------------
_raster_effu_start::
_raster_effu:
;demo.c:321: vdp_register(VDP_VOFFSET,0);
	ld	hl,#0x0017
	push	hl
	call	_vdp_register
	pop	af
;demo.c:322: waitVB();
		halt 
;demo.c:324: vdp_register(1,0x40); // disable vblank
	ld	hl,#0x4001
	push	hl
	call	_vdp_register
;demo.c:326: for (linenum = 40; linenum < 212; linenum+=4) {
	ld	a,#0x28
	ld	(#_linenum + 0),a
	pop	af
	ld	iy,#_linenum
	ld	1 (iy),#0x00
00101$:
	ld	a,(#_linenum+0)
	sub	a,#0xD4
	ld	a,(#_linenum+1)
	sbc	a,#0x00
	jp	P,00104$
;demo.c:327: vdp_register(19,linenum); // interrupt on line
	ld	a,(#_linenum+0)
	push	af
	inc	sp
	ld	a,#0x13
	push	af
	inc	sp
	call	_vdp_register
	pop	af
;demo.c:328: vdp_register(0,0x16); // mode SC5, IE1 interrupts on
	ld	hl,#0x1600
	push	hl
	call	_vdp_register
	pop	af
;demo.c:330: waitVB();
		halt 
;demo.c:326: for (linenum = 40; linenum < 212; linenum+=4) {
	ld	hl,#_linenum
	ld	a,(hl)
	add	a,#0x04
	inc	hl
	dec	hl
	push	bc
	ld	c, a
	inc	hl
	ld	a, (hl)
	ld	b, a
	ld	a, c
	dec	hl
	ld	(hl), a
	ld	a, b
	pop	bc
	adc	a,#0x00
	inc	hl
	ld	(hl),a
	jr	00101$
00104$:
;demo.c:333: vdp_register(VDP_VOFFSET,0);
	ld	hl,#0x0017
	push	hl
	call	_vdp_register
	pop	af
;demo.c:347: vdp_register(0,0x6); // mode SC5, IE1 interrupts off
	ld	hl,#0x0600
	push	hl
	call	_vdp_register
	pop	af
;demo.c:348: vdp_register(1,0x60); // enable vblank
	ld	hl,#0x6001
	push	hl
	call	_vdp_register
	pop	af
	ret
_raster_effu_end::
;demo.c:379: void do_letter(char cc) {
;	---------------------------------
; Function do_letter
; ---------------------------------
_do_letter_start::
_do_letter:
	push	ix
	ld	ix,#0
	add	ix,sp
	push	af
;demo.c:380: int cidx = cc - 65;
	ld	c,4 (ix)
	ld	a,4 (ix)
	rla	
	sbc	a,a
	ld	b,a
	ld	a,c
	add	a,#0xBF
	ld	-2 (ix),a
	ld	a,b
	adc	a,#0xFF
	ld	-1 (ix),a
;demo.c:381: cmd.source_x = 127+font_x[cidx];
	ld	a,#<_font_x
	add	a,-2 (ix)
	ld	e,a
	ld	a,#>_font_x
	adc	a,-1 (ix)
	ld	d,a
	ld	a,(de)
	ld	e,a
	ld	d,#0x00
	ld	hl,#0x007F
	add	hl,de
	ex	de,hl
	ld	hl,#_cmd
	ld	(hl),e
	inc	hl
	ld	(hl),d
;demo.c:382: cmd.source_y = 512+font_y[cidx];
	ld	de,#_cmd + 2
	ld	a,#<_font_y
	add	a,-2 (ix)
	ld	c,a
	ld	a,#>_font_y
	adc	a,-1 (ix)
	ld	b,a
	ld	a,(bc)
	ld	c,a
	ld	b,#0x00
	ld	hl,#0x0200
	add	hl,bc
	ld	c,l
	ld	b,h
	ex	de,hl
	ld	(hl),c
	inc	hl
	ld	(hl),b
;demo.c:383: cmd.dest_x = lx;
	ld	bc,#_cmd + 4
	ld	hl,#_lx + 0
	ld	e,(hl)
	ld	d,#0x00
	ld	l,c
	ld	h,b
	ld	(hl),e
	inc	hl
	ld	(hl),d
;demo.c:384: cmd.dest_y = ly;
	ld	bc,#_cmd + 6
	ld	hl,#_ly + 0
	ld	e,(hl)
	ld	d,#0x00
	ld	l,c
	ld	h,b
	ld	(hl),e
	inc	hl
	ld	(hl),d
;demo.c:385: cmd.size_x = font_w[cidx];
	ld	bc,#_cmd + 8
	ld	a,#<_font_w
	add	a,-2 (ix)
	ld	e,a
	ld	a,#>_font_w
	adc	a,-1 (ix)
	ld	d,a
	ld	a,(de)
	ld	e,a
	ld	d,#0x00
	ld	l,c
	ld	h,b
	ld	(hl),e
	inc	hl
	ld	(hl),d
;demo.c:386: cmd.size_y = 8;
	ld	hl, #_cmd + 10
	ld	(hl),#0x08
	inc	hl
	ld	(hl),#0x00
;demo.c:387: cmd.argument = 0x00;
	ld	a,#0x00
	ld	(#_cmd + 13),a
;demo.c:388: cmd.command = 0x90; // logical vram to vram
	ld	a,#0x90
	ld	(#_cmd + 14),a
;demo.c:389: vdp_copier(&cmd);
	ld	hl,#_cmd
	push	hl
	call	_vdp_copier
	pop	af
;demo.c:390: lx+=font_w[cidx]-1;
	ld	a,#<_font_w
	add	a,-2 (ix)
	ld	c,a
	ld	a,#>_font_w
	adc	a,-1 (ix)
	ld	b,a
	ld	a,(bc)
	ld	c,a
	dec	c
	ld	hl,#_lx
	ld	a,(hl)
	add	a,c
	ld	(hl),a
	ld	sp,ix
	pop	ix
	ret
_do_letter_end::
_font_x:
	.db #0x01
	.db #0x09
	.db #0x11
	.db #0x19
	.db #0x21
	.db #0x29
	.db #0x31
	.db #0x39
	.db #0x41
	.db #0x46
	.db #0x4E
	.db #0x56
	.db #0x5E
	.db #0x01
	.db #0x0A
	.db #0x12
	.db #0x1A
	.db #0x23
	.db #0x2B
	.db #0x33
	.db #0x3C
	.db #0x44
	.db #0x4C
	.db #0x56
	.db #0x5E
	.db #0x67
	.db #0x00
	.db #0x00
	.db #0x00
	.db #0x00
	.db #0x00
	.db #0x00
	.db #0x01
	.db #0x09
	.db #0x11
	.db #0x18
	.db #0x20
	.db #0x28
	.db #0x2F
	.db #0x37
	.db #0x3F
	.db #0x45
	.db #0x4C
	.db #0x54
	.db #0x5A
	.db #0x64
	.db #0x01
	.db #0x09
	.db #0x11
	.db #0x19
	.db #0x21
	.db #0x29
	.db #0x30
	.db #0x38
	.db #0x40
	.db #0x4A
	.db #0x52
	.db #0x5A
	.db 0x00
	.db 0x00
	.db 0x00
	.db 0x00
	.db 0x00
	.db 0x00
_font_y:
	.db #0x1C
	.db #0x1C
	.db #0x1C
	.db #0x1C
	.db #0x1C
	.db #0x1C
	.db #0x1C
	.db #0x1C
	.db #0x1C
	.db #0x1C
	.db #0x1C
	.db #0x1C
	.db #0x1C
	.db #0x25
	.db #0x25
	.db #0x25
	.db #0x25
	.db #0x25
	.db #0x25
	.db #0x25
	.db #0x25
	.db #0x25
	.db #0x25
	.db #0x25
	.db #0x25
	.db #0x25
	.db #0x00
	.db #0x00
	.db #0x00
	.db #0x00
	.db #0x00
	.db #0x00
	.db #0x37
	.db #0x37
	.db #0x37
	.db #0x37
	.db #0x37
	.db #0x37
	.db #0x37
	.db #0x37
	.db #0x37
	.db #0x37
	.db #0x37
	.db #0x37
	.db #0x37
	.db #0x37
	.db #0x40
	.db #0x40
	.db #0x40
	.db #0x40
	.db #0x40
	.db #0x40
	.db #0x40
	.db #0x40
	.db #0x40
	.db #0x40
	.db #0x40
	.db #0x40
	.db 0x00
	.db 0x00
	.db 0x00
	.db 0x00
	.db 0x00
	.db 0x00
_font_w:
	.db #0x07
	.db #0x07
	.db #0x07
	.db #0x07
	.db #0x07
	.db #0x07
	.db #0x07
	.db #0x07
	.db #0x04
	.db #0x07
	.db #0x07
	.db #0x07
	.db #0x09
	.db #0x08
	.db #0x07
	.db #0x07
	.db #0x08
	.db #0x07
	.db #0x07
	.db #0x08
	.db #0x07
	.db #0x07
	.db #0x09
	.db #0x07
	.db #0x08
	.db #0x07
	.db #0x00
	.db #0x00
	.db #0x00
	.db #0x00
	.db #0x00
	.db #0x00
	.db #0x07
	.db #0x07
	.db #0x06
	.db #0x07
	.db #0x07
	.db #0x07
	.db #0x07
	.db #0x07
	.db #0x05
	.db #0x06
	.db #0x07
	.db #0x05
	.db #0x09
	.db #0x07
	.db #0x07
	.db #0x07
	.db #0x07
	.db #0x07
	.db #0x07
	.db #0x06
	.db #0x07
	.db #0x07
	.db #0x09
	.db #0x07
	.db #0x07
	.db #0x07
	.db 0x00
	.db 0x00
	.db 0x00
	.db 0x00
	.db 0x00
	.db 0x00
;demo.c:394: void do_letter_tall(char cc) {
;	---------------------------------
; Function do_letter_tall
; ---------------------------------
_do_letter_tall_start::
_do_letter_tall:
	push	ix
	ld	ix,#0
	add	ix,sp
	push	af
;demo.c:395: int cidx = cc - 65;
	ld	c,4 (ix)
	ld	a,4 (ix)
	rla	
	sbc	a,a
	ld	b,a
	ld	a,c
	add	a,#0xBF
	ld	-2 (ix),a
	ld	a,b
	adc	a,#0xFF
	ld	-1 (ix),a
;demo.c:396: cmd.source_x = 127+font_x[cidx];
	ld	a,#<_font_x
	add	a,-2 (ix)
	ld	e,a
	ld	a,#>_font_x
	adc	a,-1 (ix)
	ld	d,a
	ld	a,(de)
	ld	e,a
	ld	d,#0x00
	ld	hl,#0x007F
	add	hl,de
	ex	de,hl
	ld	hl,#_cmd
	ld	(hl),e
	inc	hl
	ld	(hl),d
;demo.c:397: cmd.source_y = 512+font_y[cidx]-1;
	ld	de,#_cmd + 2
	ld	a,#<_font_y
	add	a,-2 (ix)
	ld	c,a
	ld	a,#>_font_y
	adc	a,-1 (ix)
	ld	b,a
	ld	a,(bc)
	ld	c,a
	ld	b,#0x00
	ld	hl,#0x01FF
	add	hl,bc
	ld	c,l
	ld	b,h
	ex	de,hl
	ld	(hl),c
	inc	hl
	ld	(hl),b
;demo.c:398: cmd.dest_x = lx;
	ld	bc,#_cmd + 4
	ld	hl,#_lx + 0
	ld	e,(hl)
	ld	d,#0x00
	ld	l,c
	ld	h,b
	ld	(hl),e
	inc	hl
	ld	(hl),d
;demo.c:399: cmd.dest_y = ly;
	ld	bc,#_cmd + 6
	ld	hl,#_ly + 0
	ld	e,(hl)
	ld	d,#0x00
	ld	l,c
	ld	h,b
	ld	(hl),e
	inc	hl
	ld	(hl),d
;demo.c:400: cmd.size_x = font_w[cidx];
	ld	bc,#_cmd + 8
	ld	a,#<_font_w
	add	a,-2 (ix)
	ld	e,a
	ld	a,#>_font_w
	adc	a,-1 (ix)
	ld	d,a
	ld	a,(de)
	ld	e,a
	ld	d,#0x00
	ld	l,c
	ld	h,b
	ld	(hl),e
	inc	hl
	ld	(hl),d
;demo.c:401: cmd.size_y = 10;
	ld	hl, #_cmd + 10
	ld	(hl),#0x0A
	inc	hl
	ld	(hl),#0x00
;demo.c:402: cmd.argument = 0x00;
	ld	a,#0x00
	ld	(#_cmd + 13),a
;demo.c:403: cmd.command = 0x90; // logical vram to vram
	ld	a,#0x90
	ld	(#_cmd + 14),a
;demo.c:404: vdp_copier(&cmd);
	ld	hl,#_cmd
	push	hl
	call	_vdp_copier
	pop	af
;demo.c:405: lx+=font_w[cidx]-1;
	ld	a,#<_font_w
	add	a,-2 (ix)
	ld	c,a
	ld	a,#>_font_w
	adc	a,-1 (ix)
	ld	b,a
	ld	a,(bc)
	ld	c,a
	dec	c
	ld	hl,#_lx
	ld	a,(hl)
	add	a,c
	ld	(hl),a
	ld	sp,ix
	pop	ix
	ret
_do_letter_tall_end::
;demo.c:408: void drawstr(char* str, uint8_t x, uint8_t y) {
;	---------------------------------
; Function drawstr
; ---------------------------------
_drawstr_start::
_drawstr:
	push	ix
	ld	ix,#0
	add	ix,sp
;demo.c:409: char* c = str;
	ld	c,4 (ix)
	ld	b,5 (ix)
;demo.c:410: lx = x;
	ld	e,6 (ix)
	ld	hl,#_lx + 0
	ld	(hl), e
;demo.c:411: ly = y;
	ld	a,7 (ix)
	ld	hl,#_ly + 0
	ld	(hl), a
;demo.c:412: while (*c) {
00107$:
	ld	a,(bc)
	ld	d,a
	or	a,a
	jr	Z,00110$
;demo.c:413: char ltr = *c++; 
	inc	bc
;demo.c:414: if (ltr == ' ') lx+=4;
	ld	a,d
	sub	a,#0x20
	jr	NZ,00105$
	ld	iy,#_lx
	inc	0 (iy)
	ld	iy,#_lx
	inc	0 (iy)
	ld	iy,#_lx
	inc	0 (iy)
	ld	iy,#_lx
	inc	0 (iy)
	jr	00107$
00105$:
;demo.c:415: else if (ltr == '_') { ly+=9; lx = x; }
	ld	a,d
	sub	a,#0x5F
	jr	NZ,00102$
	ld	hl,#_ly
	ld	a,(hl)
	add	a,#0x09
	ld	(hl),a
	ld	hl,#_lx + 0
	ld	(hl), e
	jr	00107$
00102$:
;demo.c:416: else do_letter(ltr);
	push	bc
	push	de
	push	de
	inc	sp
	call	_do_letter
	inc	sp
	pop	de
	pop	bc
	jr	00107$
00110$:
	pop	ix
	ret
_drawstr_end::
;demo.c:420: void drawsine(char* str, uint8_t x, uint8_t y) {
;	---------------------------------
; Function drawsine
; ---------------------------------
_drawsine_start::
_drawsine:
	push	ix
	ld	ix,#0
	add	ix,sp
	dec	sp
;demo.c:421: char* c = str;
	ld	c,4 (ix)
	ld	b,5 (ix)
;demo.c:422: lx = x;
	ld	a,6 (ix)
	ld	hl,#_lx + 0
	ld	(hl), a
;demo.c:424: while (*c) {
00104$:
	ld	a,(bc)
	ld	e,a
	or	a,a
	jp	Z,00107$
;demo.c:425: char ltr = *c++; 
	inc	bc
	ld	-1 (ix),e
;demo.c:426: ly = y+(sintabx[(lx+vbicount>>1) & 255]>>4);
	ld	hl,#_lx + 0
	ld	e,(hl)
	ld	d,#0x00
	ld	hl,#_vbicount
	ld	a,e
	add	a,(hl)
	ld	e,a
	ld	a,d
	inc	hl
	adc	a,(hl)
	ld	d,a
	sra	d
	rr	e
	ld	d,#0x00
	sla	e
	rl	d
	ld	hl,#_sintabx
	add	hl,de
	ld	e,(hl)
	inc	hl
	ld	d,(hl)
	srl	d
	rr	e
	srl	d
	rr	e
	srl	d
	rr	e
	srl	d
	rr	e
	ld	hl,#_ly
	ld	a,7 (ix)
	add	a,e
	ld	(hl),a
;demo.c:427: if (ltr == ' ') lx+=4;
	ld	a,-1 (ix)
	sub	a,#0x20
	jr	NZ,00102$
	ld	iy,#_lx
	inc	0 (iy)
	ld	iy,#_lx
	inc	0 (iy)
	ld	iy,#_lx
	inc	0 (iy)
	ld	iy,#_lx
	inc	0 (iy)
	jp	00104$
00102$:
;demo.c:428: else do_letter_tall(ltr);
	push	bc
	ld	a,-1 (ix)
	push	af
	inc	sp
	call	_do_letter_tall
	inc	sp
	pop	bc
	jp	00104$
00107$:
	ld	sp,ix
	pop	ix
	ret
_drawsine_end::
;demo.c:432: void font() {
;	---------------------------------
; Function font
; ---------------------------------
_font_start::
_font:
;demo.c:434: drawstr("DIGITAL SOUNDS SYSTEM__ IN THE HOUSE__  ON MSX__   AT REVISION__    OLDSKOOL_     DEMO_      COMPO",74,60);
	ld	hl,#0x3C4A
	push	hl
	ld	hl,#__str_0
	push	hl
	call	_drawstr
	pop	af
	pop	af
	ret
_font_end::
__str_0:
	.ascii "DIGITAL SOUNDS SYSTEM__ IN THE HOUSE__  ON MSX__   AT REVISI"
	.ascii "ON__    OLDSKOOL_     DEMO_      COMPO"
	.db 0x00
;demo.c:443: void twister() {
;	---------------------------------
; Function twister
; ---------------------------------
_twister_start::
_twister:
	push	ix
	ld	ix,#0
	add	ix,sp
	push	af
;demo.c:447: if (twinited == 0) {
	ld	a,(#_twinited+0)
	ld	iy,#_twinited
	or	a,1 (iy)
	jp	NZ,00102$
;demo.c:448: cmd.size_x = 256;
	ld	hl, #_cmd + 8
	ld	(hl),#0x00
	inc	hl
	ld	(hl),#0x01
;demo.c:449: cmd.size_y = 1;
	ld	hl, #_cmd + 10
	ld	(hl),#0x01
	inc	hl
	ld	(hl),#0x00
;demo.c:450: cmd.data = 0;
	ld	a,#0x00
	ld	(#_cmd + 12),a
;demo.c:451: cmd.argument = 0x04; // from 70xY to left
	ld	a,#0x04
	ld	(#_cmd + 13),a
;demo.c:452: cmd.command = 0xe0; // vram to vram, y only
	ld	bc,#_cmd + 14
	ld	a,#0xE0
	ld	(bc),a
;demo.c:453: cmd.source_x = 256;
	ld	hl,#_cmd
	ld	(hl),#0x00
	inc	hl
	ld	(hl),#0x01
;demo.c:454: cmd.dest_x = 256;
	ld	hl, #_cmd + 4
	ld	(hl),#0x00
	inc	hl
	ld	(hl),#0x01
;demo.c:456: for (y = 0; y < 212; y+=1) {
	ld	bc,#0x0000
00103$:
	ld	a,c
	sub	a,#0xD4
	ld	a,b
	sbc	a,#0x00
	jp	P,00106$
;demo.c:457: waitVB();
		halt 
;demo.c:458: cmd.source_y = 0;
	ld	de,#_cmd + 2
	ex	de,hl
	ld	(hl),#0x00
	inc	hl
	ld	(hl),#0x00
;demo.c:459: cmd.dest_y = y;
	ld	de,#_cmd + 6
	ex	de,hl
	ld	(hl),c
	inc	hl
	ld	(hl),b
;demo.c:460: vdp_copier(&cmd);
	push	bc
	ld	hl,#_cmd
	push	hl
	call	_vdp_copier
	pop	af
	pop	bc
;demo.c:456: for (y = 0; y < 212; y+=1) {
	inc	bc
	jr	00103$
00106$:
;demo.c:464: twinited = 1;
	ld	hl,#_twinited + 0
	ld	(hl), #0x01
	ld	hl,#_twinited + 1
	ld	(hl), #0x00
;demo.c:465: vdp_register(8,0x2); // no sprites
	ld	hl,#0x0208
	push	hl
	call	_vdp_register
	pop	af
;demo.c:466: vdp_load_palette(twister_palette);
	ld	hl,#_twister_palette
	push	hl
	call	_vdp_load_palette
	pop	af
;demo.c:467: font();
	call	_font
00102$:
;demo.c:470: cmd.size_x = 70;
	ld	hl, #_cmd + 8
	ld	(hl),#0x46
	inc	hl
	ld	(hl),#0x00
;demo.c:471: cmd.size_y = 2;
	ld	hl, #_cmd + 10
	ld	(hl),#0x02
	inc	hl
	ld	(hl),#0x00
;demo.c:472: cmd.data = 0;
	ld	a,#0x00
	ld	(#_cmd + 12),a
;demo.c:473: cmd.argument = 0x04; // from 70xY to left
	ld	a,#0x04
	ld	(#_cmd + 13),a
;demo.c:474: cmd.command = 0xe0; // vram to vram, y only
	ld	bc,#_cmd + 14
	ld	a,#0xE0
	ld	(bc),a
;demo.c:475: cmd.source_x = 70;
	ld	hl,#_cmd
	ld	(hl),#0x46
	inc	hl
	ld	(hl),#0x00
;demo.c:476: cmd.dest_x = 70;
	ld	hl, #_cmd + 4
	ld	(hl),#0x46
	inc	hl
	ld	(hl),#0x00
;demo.c:478: for (y = 0; y < 212; y+=2) {
	ld	-2 (ix),#0x00
	ld	-1 (ix),#0x00
00107$:
	ld	a,-2 (ix)
	sub	a,#0xD4
	ld	a,-1 (ix)
	sbc	a,#0x00
	jp	P,00110$
;demo.c:479: cmd.source_y = ((sintab[(ff+(y>>1)) & 255])>>1)+512+64;
	ld	de,#_cmd + 2
	ld	c,-2 (ix)
	ld	b,-1 (ix)
	sra	b
	rr	c
	ld	a,(#_ff+0)
	add	a,c
	ld	c,a
	ld	a,(#_ff+1)
	adc	a,b
	ld	b,#0x00
	ld	hl,#_sintab
	add	hl,bc
	ld	a,(hl)
	ld	c,a
	sra	c
	ld	a,c
	rla	
	sbc	a,a
	ld	b,a
	ld	hl,#0x0240
	add	hl,bc
	ld	c,l
	ld	b,h
	ld	l,e
	ld	h,d
	ld	(hl),c
	inc	hl
	ld	(hl),b
;demo.c:480: cmd.dest_y = y;
	ld	hl, #_cmd + 6
	ld	a,-2 (ix)
	ld	(hl),a
	inc	hl
	ld	a,-1 (ix)
	ld	(hl),a
;demo.c:481: vdp_copier(&cmd);
	ld	hl,#_cmd
	push	hl
	call	_vdp_copier
	pop	af
;demo.c:478: for (y = 0; y < 212; y+=2) {
	ld	a,-2 (ix)
	add	a,#0x02
	ld	-2 (ix),a
	ld	a,-1 (ix)
	adc	a,#0x00
	ld	-1 (ix),a
	jp	00107$
00110$:
;demo.c:485: msx2_palette(4,ff>>2,ff>>3,ff>>2);
	ld	hl,#_ff + 0
	ld	c,(hl)
	ld	hl,#_ff + 1
	ld	b,(hl)
	sra	b
	rr	c
	sra	b
	rr	c
	ld	hl,#_ff + 0
	ld	e,(hl)
	ld	hl,#_ff + 1
	ld	d,(hl)
	sra	d
	rr	e
	sra	d
	rr	e
	sra	d
	rr	e
	ld	b,e
	ld	a,c
	push	af
	inc	sp
	push	bc
	inc	sp
	ld	b,c
	ld	c,#0x04
	push	bc
	call	_msx2_palette
	pop	af
	pop	af
;demo.c:487: ff+=4;
	ld	hl,#_ff
	ld	a,(hl)
	add	a,#0x04
	inc	hl
	dec	hl
	push	bc
	ld	c, a
	inc	hl
	ld	a, (hl)
	ld	b, a
	ld	a, c
	dec	hl
	ld	(hl), a
	ld	a, b
	pop	bc
	adc	a,#0x00
	inc	hl
	ld	(hl),a
	ld	sp,ix
	pop	ix
	ret
_twister_end::
;demo.c:497: void bulbs() {
;	---------------------------------
; Function bulbs
; ---------------------------------
_bulbs_start::
_bulbs:
	push	ix
	ld	ix,#0
	add	ix,sp
	push	af
	push	af
;demo.c:501: ender+=enderdir;
	ld	hl,#_enderdir
	push	de
	ld	iy,#_ender
	push	iy
	pop	de
	ld	a,(de)
	add	a,(hl)
	inc	de
	dec	de
	push	bc
	ld	c, a
	inc	de
	ld	a, (de)
	ld	b, a
	ld	a, c
	dec	de
	ld	(de), a
	ld	a, b
	pop	bc
	inc	hl
	adc	a,(hl)
	inc	de
	ld	(de),a
	pop	de
;demo.c:502: if (ender < 2) enderdir = -enderdir;
	ld	a,(#_ender+0)
	sub	a,#0x02
	ld	a,(#_ender+1)
	sbc	a,#0x00
	jp	P,00102$
	xor	a,a
	ld	iy,#_enderdir
	ld	a,#0x00
	sbc	a,0 (iy)
	ld	iy,#_enderdir
	ld	0 (iy),a
	ld	iy,#_enderdir
	ld	a,#0x00
	sbc	a,1 (iy)
	ld	iy,#_enderdir
	ld	1 (iy),a
00102$:
;demo.c:503: if (ender >= 212) enderdir = -enderdir;
	ld	a,(#_ender+0)
	sub	a,#0xD4
	ld	a,(#_ender+1)
	sbc	a,#0x00
	jp	M,00104$
	xor	a,a
	ld	iy,#_enderdir
	ld	a,#0x00
	sbc	a,0 (iy)
	ld	iy,#_enderdir
	ld	0 (iy),a
	ld	iy,#_enderdir
	ld	a,#0x00
	sbc	a,1 (iy)
	ld	iy,#_enderdir
	ld	1 (iy),a
00104$:
;demo.c:505: enderend = ender + 92;
	ld	a,(#_ender+0)
	add	a,#0x5C
	ld	-2 (ix),a
	ld	a,(#_ender+1)
	adc	a,#0x00
	ld	-1 (ix),a
;demo.c:507: if (enderend > 212) enderend = 212;
	ld	a,#0xD4
	sub	a,-2 (ix)
	ld	a,#0x00
	sbc	a,-1 (ix)
	jp	P,00106$
	ld	-2 (ix),#0xD4
	ld	-1 (ix),#0x00
00106$:
;demo.c:509: if(bulbflipper == 1) {
	ld	a,(#_bulbflipper+0)
	sub	a,#0x01
	jr	NZ,00130$
	ld	a,(#_bulbflipper+1)
	or	a,a
	jr	Z,00131$
00130$:
	jp	00108$
00131$:
;demo.c:510: cmd.size_x = 72;
	ld	de,#_cmd + 8
	ex	de,hl
	ld	(hl),#0x48
	inc	hl
	ld	(hl),#0x00
;demo.c:511: cmd.size_y = 16;
	ld	de,#_cmd + 10
	ex	de,hl
	ld	(hl),#0x10
	inc	hl
	ld	(hl),#0x00
;demo.c:512: cmd.data = 0;
	ld	de,#_cmd + 12
	ld	a,#0x00
	ld	(de),a
;demo.c:513: cmd.argument = 0x04; // from 72xY to left
	ld	de,#_cmd + 13
	ld	a,#0x04
	ld	(de),a
;demo.c:514: cmd.command = 0xe0; // vram to vram, y only
	ld	de,#_cmd + 14
	ld	a,#0xE0
	ld	(de),a
;demo.c:515: cmd.source_x = 72;
	ld	hl,#_cmd
	ld	(hl),#0x48
	inc	hl
	ld	(hl),#0x00
;demo.c:516: cmd.dest_x = 72;
	ld	de,#_cmd + 4
	ld	l,e
	ld	h,d
	ld	(hl),#0x48
	inc	hl
	ld	(hl),#0x00
;demo.c:518: for (y = ender; y < enderend; y+=16) {
	ld	bc,(_ender)
	ld	e,c
	ld	d,b
00110$:
	ld	a,e
	sub	a,-2 (ix)
	ld	a,d
	sbc	a,-1 (ix)
	jp	P,00113$
;demo.c:519: cmd.source_y = ((sintab[(ff1+(y)) & 255])>>1)+320;
	ld	hl,#_cmd + 2
	ld	-4 (ix),l
	ld	-3 (ix),h
	ld	a,(#_ff1+0)
	add	a,e
	ld	c,a
	ld	a,(#_ff1+1)
	adc	a,d
	ld	b,#0x00
	ld	hl,#_sintab
	add	hl,bc
	ld	a,(hl)
	ld	c,a
	sra	c
	ld	a,c
	rla	
	sbc	a,a
	ld	b,a
	ld	hl,#0x0140
	add	hl,bc
	ld	c,l
	ld	b,h
	ld	l,-4 (ix)
	ld	h,-3 (ix)
	ld	(hl),c
	inc	hl
	ld	(hl),b
;demo.c:520: cmd.dest_y = y;
	ld	hl, #_cmd + 6
	ld	(hl),e
	inc	hl
	ld	(hl),d
;demo.c:521: vdp_copier(&cmd);
	push	de
	ld	hl,#_cmd
	push	hl
	call	_vdp_copier
	pop	af
	pop	de
;demo.c:518: for (y = ender; y < enderend; y+=16) {
	ld	hl,#0x0010
	add	hl,de
	ex	de,hl
	jp	00110$
00113$:
;demo.c:523: ff1+=4;
	ld	hl,#_ff1
	ld	a,(hl)
	add	a,#0x04
	inc	hl
	dec	hl
	push	bc
	ld	c, a
	inc	hl
	ld	a, (hl)
	ld	b, a
	ld	a, c
	dec	hl
	ld	(hl), a
	ld	a, b
	pop	bc
	adc	a,#0x00
	inc	hl
	ld	(hl),a
	jp	00109$
00108$:
;demo.c:527: cmd.size_x = 72;
	ld	hl, #_cmd + 8
	ld	(hl),#0x48
	inc	hl
	ld	(hl),#0x00
;demo.c:528: cmd.size_y = 16;
	ld	hl, #_cmd + 10
	ld	(hl),#0x10
	inc	hl
	ld	(hl),#0x00
;demo.c:529: cmd.data = 0;
;demo.c:530: cmd.argument = 0x00; // from 182xY to right
	ld	a,#0x00
	ld	(#_cmd + 12),a
	ld	(#_cmd + 13),a
;demo.c:531: cmd.command = 0xe0; // vram to vram, y only
	ld	bc,#_cmd + 14
	ld	a,#0xE0
	ld	(bc),a
;demo.c:532: cmd.source_x = 182;
	ld	hl,#_cmd
	ld	(hl),#0xB6
	inc	hl
	ld	(hl),#0x00
;demo.c:533: cmd.dest_x = 182;
	ld	hl, #_cmd + 4
	ld	(hl),#0xB6
	inc	hl
	ld	(hl),#0x00
;demo.c:535: for (y = ender; y < enderend; y+=16) {
	ld	bc,(_ender)
00114$:
	ld	a,c
	sub	a,-2 (ix)
	ld	a,b
	sbc	a,-1 (ix)
	jp	P,00117$
;demo.c:536: cmd.source_y = ((sintab[(ff2+(y)) & 255])>>1)+320;
	ld	hl,#_cmd + 2
	ld	-4 (ix),l
	ld	-3 (ix),h
	ld	a,(#_ff2+0)
	add	a,c
	ld	e,a
	ld	a,(#_ff2+1)
	adc	a,b
	ld	d,#0x00
	ld	hl,#_sintab
	add	hl,de
	ld	e,(hl)
	sra	e
	ld	a,e
	rla	
	sbc	a,a
	ld	d,a
	ld	hl,#0x0140
	add	hl,de
	ex	de,hl
	ld	l,-4 (ix)
	ld	h,-3 (ix)
	ld	(hl),e
	inc	hl
	ld	(hl),d
;demo.c:537: cmd.dest_y = y;
	ld	de,#_cmd + 6
	ex	de,hl
	ld	(hl),c
	inc	hl
	ld	(hl),b
;demo.c:538: vdp_copier(&cmd);
	push	bc
	ld	hl,#_cmd
	push	hl
	call	_vdp_copier
	pop	af
	pop	bc
;demo.c:535: for (y = ender; y < enderend; y+=16) {
	ld	hl,#0x0010
	add	hl,bc
	ld	c,l
	ld	b,h
	jp	00114$
00117$:
;demo.c:540: ff2+=4;
	ld	hl,#_ff2
	ld	a,(hl)
	add	a,#0x04
	inc	hl
	dec	hl
	push	bc
	ld	c, a
	inc	hl
	ld	a, (hl)
	ld	b, a
	ld	a, c
	dec	hl
	ld	(hl), a
	ld	a, b
	pop	bc
	adc	a,#0x00
	inc	hl
	ld	(hl),a
00109$:
;demo.c:543: bulbflipper = -bulbflipper;
	xor	a,a
	ld	iy,#_bulbflipper
	ld	a,#0x00
	sbc	a,0 (iy)
	ld	hl,#_bulbflipper + 0
	ld	(hl), a
	ld	iy,#_bulbflipper
	ld	a,#0x00
	sbc	a,1 (iy)
	ld	hl,#_bulbflipper + 1
	ld	(hl), a
	ld	sp,ix
	pop	ix
	ret
_bulbs_end::
;demo.c:557: void animplay() {
;	---------------------------------
; Function animplay
; ---------------------------------
_animplay_start::
_animplay:
	push	ix
	ld	ix,#0
	add	ix,sp
	push	af
	dec	sp
;demo.c:562: if (anim_init == 0) {
	ld	a,(#_anim_init+0)
	ld	hl,#_anim_init + 1
	or	a,(hl)
	jp	NZ,00117$
;demo.c:564: vdp_register(0,0);
	ld	hl,#0x0000
	push	hl
	call	_vdp_register
	pop	af
;demo.c:565: vdp_register(1,0);
	ld	hl,#0x0001
	push	hl
	call	_vdp_register
	pop	af
;demo.c:567: bitbuster(tf1,0x8000,VRAM_0);
	ld	a,#0x01
	push	af
	inc	sp
	ld	hl,#0x8000
	push	hl
	ld	hl,#_tf1
	push	hl
	call	_bitbuster
	pop	af
	pop	af
	inc	sp
;demo.c:568: bitbuster(tf2,0x0000,VRAM_1);
	ld	a,#0x00
	push	af
	inc	sp
	ld	hl,#0x0000
	push	hl
	ld	hl,#_tf2
	push	hl
	call	_bitbuster
	pop	af
	pop	af
	inc	sp
;demo.c:570: vdp_set_screen5();
	call	_vdp_set_screen5
;demo.c:571: vdp_register(1,0x60);
	ld	hl,#0x6001
	push	hl
	call	_vdp_register
	pop	af
;demo.c:572: vdp_register(9,2); // 192 lines
	ld	hl,#0x0209
	push	hl
	call	_vdp_register
	pop	af
;demo.c:575: anim_init = 1;
	ld	hl,#_anim_init + 0
	ld	(hl), #0x01
	ld	hl,#_anim_init + 1
	ld	(hl), #0x00
;demo.c:576: vdp_load_palette(tf_palette);
	ld	hl,#_tf_palette
	push	hl
	call	_vdp_load_palette
	pop	af
;demo.c:579: for (y = 0; y < 96; y+=1) {
00117$:
	ld	-1 (ix),#0x00
00109$:
	ld	a,-1 (ix)
	sub	a,#0x60
	jp	NC,00112$
;demo.c:580: cmd.source_x = xo;
	ld	de,(_xo)
	ld	hl,#_cmd
	ld	(hl),e
	inc	hl
	ld	(hl),d
;demo.c:581: cmd.source_y = 256+po+yo+(y>>1);
	ld	de,#_cmd + 2
	ld	a,(#_po+0)
	ld	c,a
	ld	a,(#_po+1)
	add	a,#0x01
	ld	b,a
	ld	hl,#_yo
	ld	a,c
	add	a,(hl)
	ld	-3 (ix),a
	ld	a,b
	inc	hl
	adc	a,(hl)
	ld	-2 (ix),a
	ld	c,-1 (ix)
	srl	c
	ld	b,#0x00
	ld	a,-3 (ix)
	add	a,c
	ld	c,a
	ld	a,-2 (ix)
	adc	a,b
	ld	b,a
	ld	l,e
	ld	h,d
	ld	(hl),c
	inc	hl
	ld	(hl),b
;demo.c:582: cmd.dest_x = 0;
	ld	hl, #_cmd + 4
	ld	(hl),#0x00
	inc	hl
	ld	(hl),#0x00
;demo.c:583: cmd.dest_y = (y<<1);
	ld	bc,#_cmd + 6
	ld	e,-1 (ix)
	ld	d,#0x00
	sla	e
	rl	d
	ld	l,c
	ld	h,b
	ld	(hl),e
	inc	hl
	ld	(hl),d
;demo.c:584: cmd.size_x = 128;
	ld	hl, #_cmd + 8
	ld	(hl),#0x80
	inc	hl
	ld	(hl),#0x00
;demo.c:585: cmd.size_y = 1;
	ld	hl, #_cmd + 10
	ld	(hl),#0x01
	inc	hl
	ld	(hl),#0x00
;demo.c:586: cmd.data = 0;
;demo.c:587: cmd.argument = 0x00;
	ld	a,#0x00
	ld	(#_cmd + 12),a
	ld	(#_cmd + 13),a
;demo.c:588: cmd.command = 0xD0;
	ld	a,#0xD0
	ld	(#_cmd + 14),a
;demo.c:589: vdp_copier(&cmd);
	ld	hl,#_cmd
	push	hl
	call	_vdp_copier
	pop	af
;demo.c:579: for (y = 0; y < 96; y+=1) {
	inc	-1 (ix)
	jp	00109$
00112$:
;demo.c:592: xo+=128;
	ld	hl,#_xo
	ld	a,(hl)
	add	a,#0x80
	inc	hl
	dec	hl
	push	bc
	ld	c, a
	inc	hl
	ld	a, (hl)
	ld	b, a
	ld	a, c
	dec	hl
	ld	(hl), a
	ld	a, b
	pop	bc
	adc	a,#0x00
	inc	hl
	ld	(hl),a
;demo.c:593: if (xo >= 256) {
	ld	a,(#_xo+0)
	sub	a,#0x00
	ld	a,(#_xo+1)
	sbc	a,#0x01
	jp	M,00108$
;demo.c:594: xo = 0;
	ld	hl,#_xo + 0
	ld	(hl), #0x00
	ld	hl,#_xo + 1
	ld	(hl), #0x00
;demo.c:595: yo+=48;
	ld	hl,#_yo
	ld	a,(hl)
	add	a,#0x30
	inc	hl
	dec	hl
	push	bc
	ld	c, a
	inc	hl
	ld	a, (hl)
	ld	b, a
	ld	a, c
	dec	hl
	ld	(hl), a
	ld	a, b
	pop	bc
	adc	a,#0x00
	inc	hl
	ld	(hl),a
;demo.c:596: if (yo >= 192) { yo = 0; po+=256; }
	ld	a,(#_yo+0)
	sub	a,#0xC0
	ld	a,(#_yo+1)
	sbc	a,#0x00
	jp	M,00104$
	ld	hl,#_yo + 0
	ld	(hl), #0x00
	ld	hl,#_yo + 1
	ld	(hl), #0x00
	ld	hl,#_po
	ld	a,(hl)
	add	a,#0x00
	inc	hl
	dec	hl
	push	bc
	ld	c, a
	inc	hl
	ld	a, (hl)
	ld	b, a
	ld	a, c
	dec	hl
	ld	(hl), a
	ld	a, b
	pop	bc
	adc	a,#0x01
	inc	hl
	ld	(hl),a
00104$:
;demo.c:597: if (po >= 768) {
	ld	a,(#_po+0)
	sub	a,#0x00
	ld	a,(#_po+1)
	sbc	a,#0x03
	jp	M,00108$
;demo.c:598: po = 0;
	ld	hl,#_po + 0
	ld	(hl), #0x00
	ld	hl,#_po + 1
	ld	(hl), #0x00
00108$:
;demo.c:605: fffaaa++;
	ld	iy,#_fffaaa
	inc	0 (iy)
	jr	NZ,00124$
	ld	iy,#_fffaaa
	inc	1 (iy)
00124$:
	ld	sp,ix
	pop	ix
	ret
_animplay_end::
;demo.c:614: void drawbox(int box_x, int box_y, uint8_t x, uint8_t y) {
;	---------------------------------
; Function drawbox
; ---------------------------------
_drawbox_start::
_drawbox:
	push	ix
	ld	ix,#0
	add	ix,sp
	ld	hl,#-8
	add	hl,sp
	ld	sp,hl
;demo.c:615: dbly = 0;
	ld	hl,#_dbly + 0
	ld	(hl), #0x00
	ld	hl,#_dbly + 1
	ld	(hl), #0x00
;demo.c:617: cmd.source_x = box_x * 42;
	ld	e,4 (ix)
	ld	d,5 (ix)
	ld	l,e
	ld	h,d
	add	hl,hl
	add	hl,hl
	add	hl,de
	add	hl,hl
	add	hl,hl
	add	hl,de
	add	hl,hl
	ld	c,l
	ld	b,h
	ld	hl,#_cmd
	ld	(hl),c
	inc	hl
	ld	(hl),b
;demo.c:618: cmd.source_y = 768+box_y * 42;
	inc	hl
	ld	-2 (ix),l
	ld	-1 (ix),h
	ld	e,6 (ix)
	ld	d,7 (ix)
	ld	l,e
	ld	h,d
	add	hl,hl
	add	hl,hl
	add	hl,de
	add	hl,hl
	add	hl,hl
	add	hl,de
	add	hl,hl
	ld	de, #0x0300
	add	hl, de
	ld	-4 (ix),l
	ld	-3 (ix),h
	ld	l,-2 (ix)
	ld	h,-1 (ix)
	ld	a,-4 (ix)
	ld	(hl),a
	inc	hl
	ld	a,-3 (ix)
	ld	(hl),a
;demo.c:619: cmd.dest_x = x;
	ld	de,#_cmd + 4
	ld	a,8 (ix)
	ld	-6 (ix),a
	ld	-5 (ix),#0x00
	ex	de,hl
	ld	a,-6 (ix)
	ld	(hl),a
	inc	hl
	ld	a,-5 (ix)
	ld	(hl),a
;demo.c:620: cmd.dest_y = dbly+y;
	ld	de,#_cmd + 6
	ld	a,9 (ix)
	ld	-8 (ix),a
	ld	-7 (ix),#0x00
	ex	de,hl
	ld	a,-8 (ix)
	ld	(hl),a
	inc	hl
	ld	a,-7 (ix)
	ld	(hl),a
;demo.c:621: cmd.size_x = 42;
	ld	de,#_cmd + 8
	ex	de,hl
	ld	(hl),#0x2A
	inc	hl
	ld	(hl),#0x00
;demo.c:622: cmd.size_y = 42;
	ld	de,#_cmd + 10
	ex	de,hl
	ld	(hl),#0x2A
	inc	hl
	ld	(hl),#0x00
;demo.c:623: cmd.data = 0;
	ld	de,#_cmd + 12
	ld	a,#0x00
	ld	(de),a
;demo.c:624: cmd.argument = 0x00;
	ld	de,#_cmd + 13
	ld	a,#0x00
	ld	(de),a
;demo.c:625: cmd.command = 0x99; // mask AND
	ld	de,#_cmd + 14
	ld	a,#0x99
	ld	(de),a
;demo.c:626: vdp_copier(&cmd);
	push	bc
	ld	hl,#_cmd
	push	hl
	call	_vdp_copier
	pop	af
	pop	bc
;demo.c:628: cmd.source_x = box_x * 42;
	ld	hl,#_cmd
	ld	(hl),c
	inc	hl
	ld	(hl),b
;demo.c:629: cmd.source_y = 768+box_y * 42;
	ld	hl, #_cmd + 2
	ld	a,-4 (ix)
	ld	(hl),a
	inc	hl
	ld	a,-3 (ix)
	ld	(hl),a
;demo.c:630: cmd.dest_x = x;
	ld	hl, #_cmd + 4
	ld	a,-6 (ix)
	ld	(hl),a
	inc	hl
	ld	a,-5 (ix)
	ld	(hl),a
;demo.c:631: cmd.dest_y = dbly+y;
	ld	bc,#_cmd + 6
	ld	a,(#_dbly+0)
	add	a,-8 (ix)
	ld	e,a
	ld	a,(#_dbly+1)
	adc	a,-7 (ix)
	ld	d,a
	ld	l,c
	ld	h,b
	ld	(hl),e
	inc	hl
	ld	(hl),d
;demo.c:632: cmd.size_x = 42;
	ld	hl, #_cmd + 8
	ld	(hl),#0x2A
	inc	hl
	ld	(hl),#0x00
;demo.c:633: cmd.size_y = 42;
	ld	hl, #_cmd + 10
	ld	(hl),#0x2A
	inc	hl
	ld	(hl),#0x00
;demo.c:634: cmd.data = 0;
;demo.c:635: cmd.argument = 0x00;
	ld	a,#0x00
	ld	(#_cmd + 12),a
	ld	(#_cmd + 13),a
;demo.c:636: cmd.command = 0x9A; // IMAGE OR
	ld	a,#0x9A
	ld	(#_cmd + 14),a
;demo.c:637: vdp_copier(&cmd);
	ld	hl,#_cmd
	push	hl
	call	_vdp_copier
	pop	af
	ld	sp,ix
	pop	ix
	ret
_drawbox_end::
;demo.c:648: void boxes() {
;	---------------------------------
; Function boxes
; ---------------------------------
_boxes_start::
_boxes:
;demo.c:651: if (buffer == 1) vdp_register(2,31);
	ld	a,(#_buffer+0)
	sub	a,#0x01
	jr	NZ,00135$
	ld	a,(#_buffer+1)
	or	a,a
	jr	Z,00136$
00135$:
	jr	00102$
00136$:
	ld	hl,#0x1F02
	push	hl
	call	_vdp_register
	pop	af
00102$:
;demo.c:654: if (boxes_init == 0) {
	xor	a,a
	ld	hl,#_boxes_init + 0
	or	a,(hl)
	jp	NZ,00104$
;demo.c:655: boxes_init = 1;
	ld	iy,#_boxes_init
	ld	0 (iy),#0x01
;demo.c:657: cmd.size_x = 8;
	ld	hl, #_cmd + 8
	ld	(hl),#0x08
	inc	hl
	ld	(hl),#0x00
;demo.c:658: cmd.size_y = 212;
	ld	hl, #_cmd + 10
	ld	(hl),#0xD4
	inc	hl
	ld	(hl),#0x00
;demo.c:659: cmd.data = 0;
;demo.c:660: cmd.argument = 0x00; // from 70xY to left
	ld	a,#0x00
	ld	(#_cmd + 12),a
	ld	(#_cmd + 13),a
;demo.c:661: cmd.command = 0xd0; // vram to vram, y only
	ld	bc,#_cmd + 14
	ld	a,#0xD0
	ld	(bc),a
;demo.c:662: cmd.source_x = 248;
	ld	hl,#_cmd
	ld	(hl),#0xF8
	inc	hl
	ld	(hl),#0x00
;demo.c:663: cmd.source_y = 0;
	ld	hl, #_cmd + 2
	ld	(hl),#0x00
	inc	hl
	ld	(hl),#0x00
;demo.c:664: cmd.dest_y = 0;
	ld	hl, #_cmd + 6
	ld	(hl),#0x00
	inc	hl
	ld	(hl),#0x00
;demo.c:666: for (x = 248; x >= 0; x-=8) {
	ld	bc,#0x00F8
00118$:
	ld	a,b
	bit	7,a
	jr	NZ,00121$
;demo.c:667: waitVB();
		halt 
;demo.c:668: cmd.dest_x = x;
	ld	de,#_cmd + 4
	ex	de,hl
	ld	(hl),c
	inc	hl
	ld	(hl),b
;demo.c:669: cmd.dest_y = 0;
	ld	de,#_cmd + 6
	ex	de,hl
	ld	(hl),#0x00
	inc	hl
	ld	(hl),#0x00
;demo.c:670: vdp_copier(&cmd);
	push	bc
	ld	hl,#_cmd
	push	hl
	call	_vdp_copier
	pop	af
	pop	bc
;demo.c:671: cmd.dest_y = 256;
	ld	de,#_cmd + 6
	ex	de,hl
	ld	(hl),#0x00
	inc	hl
	ld	(hl),#0x01
;demo.c:672: vdp_copier(&cmd);
	push	bc
	ld	hl,#_cmd
	push	hl
	call	_vdp_copier
	pop	af
	pop	bc
;demo.c:666: for (x = 248; x >= 0; x-=8) {
	ld	a,c
	add	a,#0xF8
	ld	c,a
	ld	a,b
	adc	a,#0xFF
	ld	b,a
	jr	00118$
00121$:
;demo.c:675: vdp_load_palette(boxes_palette);
	ld	hl,#_boxes_palette
	push	hl
	call	_vdp_load_palette
	pop	af
00104$:
;demo.c:678: bt++;
	ld	iy,#_bt
	inc	0 (iy)
	jr	NZ,00137$
	ld	iy,#_bt
	inc	1 (iy)
00137$:
;demo.c:679: if (bt > 8) {
	ld	a,#0x08
	ld	iy,#_bt
	sub	a,0 (iy)
	ld	a,#0x00
	ld	iy,#_bt
	sbc	a,1 (iy)
	ret	P
;demo.c:680: bt = 0;
	ld	hl,#_bt + 0
	ld	(hl), #0x00
	ld	hl,#_bt + 1
	ld	(hl), #0x00
;demo.c:681: if (by > 0) {
	ld	a,#0x00
	ld	iy,#_by
	sub	a,0 (iy)
	ld	a,#0x00
	ld	iy,#_by
	sbc	a,1 (iy)
	jp	P,00114$
;demo.c:682: by-=16;
	ld	hl,#_by
	ld	a,(hl)
	add	a,#0xF0
	ld	(hl),a
	inc	hl
	ld	a,(hl)
	adc	a,#0xFF
	ld	(hl),a
;demo.c:683: if (by < 212-42) drawbox(bxx,byy,bx,by);
	ld	a,(#_by+0)
	sub	a,#0xAA
	ld	a,(#_by+1)
	sbc	a,#0x00
	jp	P,00106$
	ld	hl,#_by + 0
	ld	c,(hl)
	ld	hl,#_bx + 0
	ld	b,(hl)
	ld	a,c
	push	af
	inc	sp
	push	bc
	inc	sp
	ld	hl,(_byy)
	push	hl
	ld	hl,(_bxx)
	push	hl
	call	_drawbox
	pop	af
	pop	af
	pop	af
00106$:
;demo.c:684: bxx++;
	ld	iy,#_bxx
	inc	0 (iy)
	jr	NZ,00138$
	ld	iy,#_bxx
	inc	1 (iy)
00138$:
;demo.c:685: if (bxx >= 4) { bxx = 0; byy++; }
	ld	a,(#_bxx+0)
	sub	a,#0x04
	ld	a,(#_bxx+1)
	sbc	a,#0x00
	jp	M,00108$
	ld	hl,#_bxx + 0
	ld	(hl), #0x00
	ld	hl,#_bxx + 1
	ld	(hl), #0x00
	ld	iy,#_byy
	inc	0 (iy)
	jr	NZ,00139$
	ld	iy,#_byy
	inc	1 (iy)
00139$:
00108$:
;demo.c:686: if (byy >= 2) { byy = 0; }
	ld	a,(#_byy+0)
	sub	a,#0x02
	ld	a,(#_byy+1)
	sbc	a,#0x00
	ret	M
	ld	hl,#_byy + 0
	ld	(hl), #0x00
	ld	hl,#_byy + 1
	ld	(hl), #0x00
	ret
00114$:
;demo.c:688: bx-=21;
	ld	hl,#_bx
	ld	a,(hl)
	add	a,#0xEB
	ld	(hl),a
	inc	hl
	ld	a,(hl)
	adc	a,#0xFF
	ld	(hl),a
;demo.c:689: bo+=11;
	ld	hl,#_bo
	ld	a,(hl)
	add	a,#0x0B
	inc	hl
	dec	hl
	push	bc
	ld	c, a
	inc	hl
	ld	a, (hl)
	ld	b, a
	ld	a, c
	dec	hl
	ld	(hl), a
	ld	a, b
	pop	bc
	adc	a,#0x00
	inc	hl
	ld	(hl),a
;demo.c:690: if (bo > 192) bo = 0;
	ld	a,#0xC0
	ld	iy,#_bo
	sub	a,0 (iy)
	ld	a,#0x00
	ld	iy,#_bo
	sbc	a,1 (iy)
	jp	P,00112$
	ld	hl,#_bo + 0
	ld	(hl), #0x00
	ld	hl,#_bo + 1
	ld	(hl), #0x00
00112$:
;demo.c:691: by=192-42+bo;
	ld	hl,#_by
	ld	a,(#_bo+0)
	add	a,#0x96
	ld	(hl),a
	ld	a,(#_bo+1)
	adc	a,#0x00
	inc	hl
	ld	(hl),a
	ret
_boxes_end::
;demo.c:703: void main() {
;	---------------------------------
; Function main
; ---------------------------------
_main_start::
_main:
;demo.c:704: unsigned char quit=0;
	ld	c,#0x00
;demo.c:705: int modes = 128; // interlace bit on
	ld	de,#0x0080
;demo.c:709: spindown();
	push	bc
	push	de
	call	_spindown
	pop	de
	pop	bc
;demo.c:711: puts("demo init\r\n\r\n");
	push	bc
	push	de
	ld	hl,#__str_1
	push	hl
	call	_puts
	pop	af
	pop	de
	pop	bc
;demo.c:724: puts("music init...");
	push	bc
	push	de
	ld	hl,#__str_2
	push	hl
	call	_puts
	pop	af
	pop	de
	pop	bc
;demo.c:726: PLY_SongPtr = (char *)0x0103;
	ld	hl,#_PLY_SongPtr + 0
	ld	(hl), #0x03
	ld	hl,#_PLY_SongPtr + 1
	ld	(hl), #0x01
;demo.c:727: PLY_Init();
	push	bc
	push	de
	call	_PLY_Init
	pop	de
	pop	bc
;demo.c:728: puts("done.\n\n");
	push	bc
	push	de
	ld	hl,#__str_3
	push	hl
	call	_puts
	pop	af
	pop	de
	pop	bc
;demo.c:730: if(isvdp2())
	push	bc
	push	de
	call	_isvdp2
	ld	b,l
	pop	de
	ld	a,b
	pop	bc
	ld	b,a
	or	a,a
	jr	Z,00102$
;demo.c:732: modes+=2; // pal
	ld	de,#0x0082
00102$:
;demo.c:736: vdp_set_screen5();
	push	bc
	push	de
	call	_vdp_set_screen5
	pop	de
	pop	bc
;demo.c:738: vdp_register(VDP_MODE3,modes); // interlace on, screen mode pal or ntsc
	ld	b,e
	push	bc
	push	bc
	inc	sp
	ld	a,#0x09
	push	af
	inc	sp
	call	_vdp_register
	pop	af
	pop	bc
;demo.c:740: puts("demo start\r\n");
	push	bc
	ld	hl,#__str_4
	push	hl
	call	_puts
	pop	af
	pop	bc
;demo.c:742: scratch_clear();
	push	bc
	call	_scratch_clear
	pop	bc
;demo.c:743: vdp_load_palette(scratch);
	push	bc
	ld	hl,#_scratch
	push	hl
	call	_vdp_load_palette
	pop	af
	pop	bc
;demo.c:745: vdp_register(VDP_VOFFSET,0);
	push	bc
	ld	hl,#0x0017
	push	hl
	call	_vdp_register
	pop	af
	pop	bc
;demo.c:747: pal_load("TWISTER PL5",32);
	push	bc
	ld	a,#0x20
	push	af
	inc	sp
	ld	hl,#__str_5
	push	hl
	call	_pal_load
	pop	af
	inc	sp
	pop	bc
;demo.c:748: memcpy(twister_palette, cur_palette, 32);
	push	bc
	ld	hl,#0x0020
	push	hl
	ld	hl,#_cur_palette
	push	hl
	ld	hl,#_twister_palette
	push	hl
	call	_memcpy
	pop	af
	pop	af
	pop	af
	pop	bc
;demo.c:749: pal_load("TF1     PL5",32);
	push	bc
	ld	a,#0x20
	push	af
	inc	sp
	ld	hl,#__str_6
	push	hl
	call	_pal_load
	pop	af
	inc	sp
	pop	bc
;demo.c:750: memcpy(tf_palette, cur_palette, 32);
	push	bc
	ld	hl,#0x0020
	push	hl
	ld	hl,#_cur_palette
	push	hl
	ld	hl,#_tf_palette
	push	hl
	call	_memcpy
	pop	af
	pop	af
	pop	af
	pop	bc
;demo.c:751: pal_load("BOXES   PL5",32);
	push	bc
	ld	a,#0x20
	push	af
	inc	sp
	ld	hl,#__str_7
	push	hl
	call	_pal_load
	pop	af
	inc	sp
	pop	bc
;demo.c:752: memcpy(boxes_palette, cur_palette, 32);
	push	bc
	ld	hl,#0x0020
	push	hl
	ld	hl,#_cur_palette
	push	hl
	ld	hl,#_boxes_palette
	push	hl
	call	_memcpy
	pop	af
	pop	af
	pop	af
	pop	bc
;demo.c:755: pal_load("BULBS   PL5",32);
	push	bc
	ld	a,#0x20
	push	af
	inc	sp
	ld	hl,#__str_8
	push	hl
	call	_pal_load
	pop	af
	inc	sp
	pop	bc
;demo.c:757: pck_load("DSSLOGO PCK",2154,0x0000,VRAM_0);
	push	bc
	ld	hl,#0x0001
	push	hl
	ld	l, #0x00
	push	hl
	ld	hl,#0x086A
	push	hl
	ld	hl,#__str_9
	push	hl
	call	_pck_load
	pop	af
	pop	af
	pop	af
	pop	af
	pop	bc
;demo.c:758: pck_load("BULBS   PCK",2431,0x8000,VRAM_0);
	push	bc
	ld	hl,#0x0001
	push	hl
	ld	hl,#0x8000
	push	hl
	ld	hl,#0x097F
	push	hl
	ld	hl,#__str_10
	push	hl
	call	_pck_load
	pop	af
	pop	af
	pop	af
	pop	af
	pop	bc
;demo.c:760: pck_load("TWISTER PCK",4032,0x0000,VRAM_1);
	push	bc
	ld	hl,#0x0000
	push	hl
	ld	l, #0x00
	push	hl
	ld	hl,#0x0FC0
	push	hl
	ld	hl,#__str_11
	push	hl
	call	_pck_load
	pop	af
	pop	af
	pop	af
	pop	af
	pop	bc
;demo.c:761: pck_load("BOXES   PCK",3667,0x8000,VRAM_1);
	push	bc
	ld	hl,#0x0000
	push	hl
	ld	h, #0x80
	push	hl
	ld	hl,#0x0E53
	push	hl
	ld	hl,#__str_12
	push	hl
	call	_pck_load
	pop	af
	pop	af
	pop	af
	pop	af
	pop	bc
;demo.c:773: scratch_clear();
	push	bc
	call	_scratch_clear
	pop	bc
;demo.c:774: vdp_load_palette(scratch);
	push	bc
	ld	hl,#_scratch
	push	hl
	call	_vdp_load_palette
	pop	af
	pop	bc
;demo.c:776: install_isr(my_isr);
	push	bc
	ld	hl,#_my_isr
	push	hl
	call	_install_isr
	pop	af
	pop	bc
;demo.c:778: while (!quit) {
00108$:
	xor	a,a
	or	a,c
	jr	NZ,00110$
;demo.c:779: waitVB();
		halt 
;demo.c:782: if (vbicount < 64) { 
	ld	a,(#_vbicount+0)
	sub	a,#0x40
	ld	a,(#_vbicount+1)
	sbc	a,#0x00
	jp	P,00104$
;demo.c:783: fadein(); 
	push	bc
	call	_fadein
	pop	bc
	jr	00105$
00104$:
;demo.c:785: boxes();
	push	bc
	call	_boxes
	pop	bc
00105$:
;demo.c:804: if (vbicount >= 1500) {
;demo.c:809: if(space())
	push	bc
	ld	hl,#0x0108
	push	hl
	call	_ispressed
	pop	af
	ld	a,l
	pop	bc
	ld	b,a
	or	a,a
	jr	Z,00108$
;demo.c:810: quit=1;
	ld	c,#0x01
	jr	00108$
00110$:
;demo.c:813: waitVB();
		halt 
;demo.c:814: uninstall_isr();
	call	_uninstall_isr
;demo.c:815: PLY_Stop();
	call	_PLY_Stop
;demo.c:816: PLY_SendRegisters();
	call	_PLY_SendRegisters
;demo.c:818: screen(0);
	ld	a,#0x00
	push	af
	inc	sp
	call	_screen
	inc	sp
;demo.c:820: puts("demo exit\r\n\r\n");
	ld	hl,#__str_13
	push	hl
	call	_puts
	pop	af
;demo.c:822: exit(0);
	ld	a,#0x00
	push	af
	inc	sp
	call	_exit
	inc	sp
	ret
_main_end::
__str_1:
	.ascii "demo init"
	.db 0x0D
	.db 0x0A
	.db 0x0D
	.db 0x0A
	.db 0x00
__str_2:
	.ascii "music init..."
	.db 0x00
__str_3:
	.ascii "done."
	.db 0x0A
	.db 0x0A
	.db 0x00
__str_4:
	.ascii "demo start"
	.db 0x0D
	.db 0x0A
	.db 0x00
__str_5:
	.ascii "TWISTER PL5"
	.db 0x00
__str_6:
	.ascii "TF1     PL5"
	.db 0x00
__str_7:
	.ascii "BOXES   PL5"
	.db 0x00
__str_8:
	.ascii "BULBS   PL5"
	.db 0x00
__str_9:
	.ascii "DSSLOGO PCK"
	.db 0x00
__str_10:
	.ascii "BULBS   PCK"
	.db 0x00
__str_11:
	.ascii "TWISTER PCK"
	.db 0x00
__str_12:
	.ascii "BOXES   PCK"
	.db 0x00
__str_13:
	.ascii "demo exit"
	.db 0x0D
	.db 0x0A
	.db 0x0D
	.db 0x0A
	.db 0x00
	.area _CODE
	.area _CABS
