;--------------------------------------------------------
; File Created by SDCC : free open source ANSI-C Compiler
; Version 2.9.0 #5416 (Mar 22 2009) (Mac OS X i386)
; This file was generated Fri Feb  9 00:49:13 2018
;--------------------------------------------------------
	.module demo
	.optsdcc -mz80
	
;--------------------------------------------------------
; Public variables in this module
;--------------------------------------------------------
	.globl _main
	.globl _do_ymmm
	.globl _fadein
	.globl _pack_load
	.globl _pause
	.globl _pal_load
	.globl _scratch_clear
	.globl _ge5_load
	.globl _my_isr
	.globl _yo
	.globl _tick
	.globl _vbicount
	.globl _cur_palette
	.globl _scratch
	.globl _packbuffer
	.globl _sintab
;--------------------------------------------------------
; special function registers
;--------------------------------------------------------
;--------------------------------------------------------
;  ram data
;--------------------------------------------------------
	.area _DATA
_sintab::
	.ds 256
_packbuffer::
	.ds 5000
_scratch::
	.ds 128
_cur_palette::
	.ds 32
_vbicount::
	.ds 2
_tick::
	.ds 2
_yo::
	.ds 1
;--------------------------------------------------------
; overlayable items in  ram 
;--------------------------------------------------------
	.area _OVERLAY
;--------------------------------------------------------
; external initialized ram data
;--------------------------------------------------------
;--------------------------------------------------------
; global & static initialisations
;--------------------------------------------------------
	.area _HOME
	.area _GSINIT
	.area _GSFINAL
	.area _GSINIT
;types.h:27: signed char sintab[256]={
	ld	hl,#_sintab
	call	__initrleblock
	.db	59
	.db	0x00, 0x03, 0x06, 0x09, 0x0C, 0x0F, 0x12, 0x15
	.db	0x18, 0x1B, 0x1E, 0x21, 0x24, 0x27, 0x2A, 0x2D
	.db	0x30, 0x33, 0x36, 0x39, 0x3B, 0x3E, 0x41, 0x43
	.db	0x46, 0x49, 0x4B, 0x4E, 0x50, 0x52, 0x55, 0x57
	.db	0x59, 0x5B, 0x5E, 0x60, 0x62, 0x64, 0x66, 0x67
	.db	0x69, 0x6B, 0x6C, 0x6E, 0x70, 0x71, 0x72, 0x74
	.db	0x75, 0x76, 0x77, 0x78, 0x79, 0x7A, 0x7B, 0x7B
	.db	0x7C, 0x7D, 0x7D
	.db	#-5,#0x7E
	.db	1
	.db	0x7F
	.db	#-5,#0x7E
	.db	117
	.db	0x7D, 0x7D, 0x7C, 0x7B, 0x7B, 0x7A, 0x79, 0x78
	.db	0x77, 0x76, 0x75, 0x74, 0x72, 0x71, 0x70, 0x6E
	.db	0x6C, 0x6B, 0x69, 0x67, 0x66, 0x64, 0x62, 0x60
	.db	0x5E, 0x5B, 0x59, 0x57, 0x55, 0x52, 0x50, 0x4E
	.db	0x4B, 0x49, 0x46, 0x43, 0x41, 0x3E, 0x3B, 0x39
	.db	0x36, 0x33, 0x30, 0x2D, 0x2A, 0x27, 0x24, 0x21
	.db	0x1E, 0x1B, 0x18, 0x15, 0x12, 0x0F, 0x0C, 0x09
	.db	0x06, 0x03, 0x00, 0xFD, 0xFA, 0xF7, 0xF4, 0xF1
	.db	0xEE, 0xEB, 0xE8, 0xE5, 0xE2, 0xDF, 0xDC, 0xD9
	.db	0xD6, 0xD3, 0xD0, 0xCD, 0xCA, 0xC7, 0xC5, 0xC2
	.db	0xBF, 0xBD, 0xBA, 0xB7, 0xB5, 0xB2, 0xB0, 0xAE
	.db	0xAB, 0xA9, 0xA7, 0xA5, 0xA2, 0xA0, 0x9E, 0x9C
	.db	0x9A, 0x99, 0x97, 0x95, 0x94, 0x92, 0x90, 0x8F
	.db	0x8E, 0x8C, 0x8B, 0x8A, 0x89, 0x88, 0x87, 0x86
	.db	0x85, 0x85, 0x84, 0x83, 0x83
	.db	#-5,#0x82
	.db	1
	.db	0x81
	.db	#-5,#0x82
	.db	58
	.db	0x83, 0x83, 0x84, 0x85, 0x85, 0x86, 0x87, 0x88
	.db	0x89, 0x8A, 0x8B, 0x8C, 0x8E, 0x8F, 0x90, 0x92
	.db	0x94, 0x95, 0x97, 0x99, 0x9A, 0x9C, 0x9E, 0xA0
	.db	0xA2, 0xA5, 0xA7, 0xA9, 0xAB, 0xAE, 0xB0, 0xB2
	.db	0xB5, 0xB7, 0xBA, 0xBD, 0xBF, 0xC2, 0xC5, 0xC7
	.db	0xCA, 0xCD, 0xD0, 0xD3, 0xD6, 0xD9, 0xDC, 0xDF
	.db	0xE2, 0xE5, 0xE8, 0xEB, 0xEE, 0xF1, 0xF4, 0xF7
	.db	0xFA, 0xFD
	.db	0
;demo.c:13: uint8_t packbuffer[5000] = {0};
	ld	hl,#_packbuffer
	call	__initrleblock
	.db	#-127,#0x00
	.db	#-127,#0x00
	.db	#-127,#0x00
	.db	#-127,#0x00
	.db	#-127,#0x00
	.db	#-127,#0x00
	.db	#-127,#0x00
	.db	#-127,#0x00
	.db	#-127,#0x00
	.db	#-127,#0x00
	.db	#-127,#0x00
	.db	#-127,#0x00
	.db	#-127,#0x00
	.db	#-127,#0x00
	.db	#-127,#0x00
	.db	#-127,#0x00
	.db	#-127,#0x00
	.db	#-127,#0x00
	.db	#-127,#0x00
	.db	#-127,#0x00
	.db	#-127,#0x00
	.db	#-127,#0x00
	.db	#-127,#0x00
	.db	#-127,#0x00
	.db	#-127,#0x00
	.db	#-127,#0x00
	.db	#-127,#0x00
	.db	#-127,#0x00
	.db	#-127,#0x00
	.db	#-127,#0x00
	.db	#-127,#0x00
	.db	#-127,#0x00
	.db	#-127,#0x00
	.db	#-127,#0x00
	.db	#-127,#0x00
	.db	#-127,#0x00
	.db	#-127,#0x00
	.db	#-127,#0x00
	.db	#-127,#0x00
	.db	#-47,#0x00
	.db	0
;demo.c:18: volatile int vbicount=0;
	ld	iy,#_vbicount
	ld	0 (iy),#0x00
	ld	iy,#_vbicount
	ld	1 (iy),#0x00
;demo.c:19: volatile int tick=0;
	ld	iy,#_tick
	ld	0 (iy),#0x00
	ld	iy,#_tick
	ld	1 (iy),#0x00
;demo.c:162: uint8_t yo = 0;
	ld	iy,#_yo
	ld	0 (iy),#0x00
;--------------------------------------------------------
; Home
;--------------------------------------------------------
	.area _HOME
	.area _HOME
;--------------------------------------------------------
; code
;--------------------------------------------------------
	.area _CODE
;demo.c:25: void my_isr(void) interrupt
;	---------------------------------
; Function my_isr
; ---------------------------------
_my_isr_start::
_my_isr:
	push	af
	push	bc
	push	de
	push	hl
	push	iy
;demo.c:27: DI;
		di 
;demo.c:28: READ_VDP_STATUS;
		in a,(#0x99) 
;demo.c:30: PLY_Play();
	call	_PLY_Play
;demo.c:31: PLY_SendRegisters();
	call	_PLY_SendRegisters
;demo.c:33: vbicount++;
	ld	iy,#_vbicount
	inc	0 (iy)
	jr	NZ,00103$
	ld	iy,#_vbicount
	inc	1 (iy)
00103$:
;demo.c:34: tick++;
	ld	iy,#_tick
	inc	0 (iy)
	jr	NZ,00104$
	ld	iy,#_tick
	inc	1 (iy)
00104$:
;demo.c:36: EI;
		ei 
	pop	iy
	pop	hl
	pop	de
	pop	bc
	pop	af
	reti
_my_isr_end::
;demo.c:43: uint8_t ge5_load(char *file_name, uint8_t vramh, uint16_t vraml) {
;	---------------------------------
; Function ge5_load
; ---------------------------------
_ge5_load_start::
_ge5_load:
	push	ix
	ld	ix,#0
	add	ix,sp
	ld	hl,#-46
	add	hl,sp
	ld	sp,hl
;demo.c:47: memset((uint8_t *) &f, 0, sizeof(fcb));
	ld	hl,#0x0000
	add	hl,sp
	ld	c,l
	ld	b,h
	ld	hl,#0x002E
	push	hl
	ld	a,#0x00
	push	af
	inc	sp
	push	bc
	call	_memset
	pop	af
	pop	af
	inc	sp
;demo.c:49: f.record_size = 128;
	ld	hl,#0x0000
	add	hl,sp
	ld	c,l
	ld	b,h
	ld	hl,#0x000F
	add	hl,bc
	ex	de,hl
	ld	a,#0x80
	ld	(de),a
;demo.c:50: f.drive = 0;
	ld	a,#0x00
	ld	(bc),a
;demo.c:52: memcpy(f.name, file_name, 11);
	ld	e,4 (ix)
	ld	d,5 (ix)
	inc	bc
	ld	hl,#0x000B
	push	hl
	push	de
	push	bc
	call	_memcpy
	pop	af
	pop	af
	pop	af
;demo.c:54: if (open(&f) != 0) return 0;
	ld	hl,#0x0000
	add	hl,sp
	push	hl
	call	_open
	pop	af
	xor	a,a
	or	a,l
	jr	Z,00102$
	ld	l,#0x00
	jp	00114$
00102$:
;demo.c:55: vdp_set_write_address(vramh, vraml);
	ld	l,7 (ix)
	ld	h,8 (ix)
	push	hl
	ld	a,6 (ix)
	push	af
	inc	sp
	call	_vdp_set_write_address
	pop	af
	inc	sp
;demo.c:57: for (i = 0; i < 213; i++) {
	ld	c,#0x00
00110$:
	ld	a,c
	sub	a,#0xD5
	jp	NC,00113$
;demo.c:58: if (block_set_data_ptr(scratch) != 0) return 0;
	push	bc
	ld	hl,#_scratch
	push	hl
	call	_block_set_data_ptr
	pop	af
	ld	a,l
	pop	bc
	ld	b,a
	or	a,a
	jr	Z,00104$
	ld	l,#0x00
	jp	00114$
00104$:
;demo.c:59: if (block_read(&f) != 0) return 0;
	ld	hl,#0x0000
	add	hl,sp
	push	bc
	push	hl
	call	_block_read
	pop	af
	ld	a,l
	pop	bc
	ld	b,a
	or	a,a
	jr	Z,00106$
	ld	l,#0x00
	jr	00114$
00106$:
;demo.c:61: if (i == 0) vdp_load_screen(scratch + 7, 121);   // to skip GE5 header
	xor	a,a
	or	a,c
	jr	NZ,00108$
	ld	de,#_scratch + 7
	push	bc
	ld	a,#0x79
	push	af
	inc	sp
	push	de
	call	_vdp_load_screen
	pop	af
	inc	sp
	pop	bc
	jr	00112$
00108$:
;demo.c:62: else vdp_load_screen(scratch, 128);
	push	bc
	ld	a,#0x80
	push	af
	inc	sp
	ld	hl,#_scratch
	push	hl
	call	_vdp_load_screen
	pop	af
	inc	sp
	pop	bc
00112$:
;demo.c:57: for (i = 0; i < 213; i++) {
	inc	c
	jp	00110$
00113$:
;demo.c:65: close(&f);
	ld	hl,#0x0000
	add	hl,sp
	push	hl
	call	_close
	pop	af
;demo.c:67: return 1;
	ld	l,#0x01
00114$:
	ld	sp,ix
	pop	ix
	ret
_ge5_load_end::
;demo.c:70: void scratch_clear() {
;	---------------------------------
; Function scratch_clear
; ---------------------------------
_scratch_clear_start::
_scratch_clear:
;demo.c:71: memset((uint8_t *) &scratch, 0, 128);
	ld	hl,#0x0080
	push	hl
	ld	a,#0x00
	push	af
	inc	sp
	ld	hl,#_scratch
	push	hl
	call	_memset
	pop	af
	pop	af
	inc	sp
	ret
_scratch_clear_end::
;demo.c:74: uint8_t pal_load(char *file_name, uint8_t ss) {
;	---------------------------------
; Function pal_load
; ---------------------------------
_pal_load_start::
_pal_load:
	push	ix
	ld	ix,#0
	add	ix,sp
	ld	hl,#-46
	add	hl,sp
	ld	sp,hl
;demo.c:77: memset((uint8_t *) &f, 0, sizeof(fcb));
	ld	hl,#0x0000
	add	hl,sp
	ld	c,l
	ld	b,h
	ld	hl,#0x002E
	push	hl
	ld	a,#0x00
	push	af
	inc	sp
	push	bc
	call	_memset
	pop	af
	pop	af
	inc	sp
;demo.c:78: scratch_clear();
	call	_scratch_clear
;demo.c:80: f.record_size = ss;
	ld	hl,#0x0000
	add	hl,sp
	ld	c,l
	ld	b,h
	ld	hl,#0x000F
	add	hl,bc
	ex	de,hl
	ld	a,6 (ix)
	ld	(de),a
;demo.c:81: f.drive = 0;
	ld	a,#0x00
	ld	(bc),a
;demo.c:83: memcpy(f.name, file_name, 11);
	ld	e,4 (ix)
	ld	d,5 (ix)
	inc	bc
	ld	hl,#0x000B
	push	hl
	push	de
	push	bc
	call	_memcpy
	pop	af
	pop	af
	pop	af
;demo.c:85: if (open(&f) != 0) return 0;
	ld	hl,#0x0000
	add	hl,sp
	push	hl
	call	_open
	pop	af
	xor	a,a
	or	a,l
	jr	Z,00102$
	ld	l,#0x00
	jr	00107$
00102$:
;demo.c:86: if (block_set_data_ptr(scratch) != 0) return 0;
	ld	hl,#_scratch
	push	hl
	call	_block_set_data_ptr
	pop	af
	xor	a,a
	or	a,l
	jr	Z,00104$
	ld	l,#0x00
	jr	00107$
00104$:
;demo.c:87: if (block_read(&f) != 0) return 0;
	ld	hl,#0x0000
	add	hl,sp
	push	hl
	call	_block_read
	pop	af
	xor	a,a
	or	a,l
	jr	Z,00106$
	ld	l,#0x00
	jr	00107$
00106$:
;demo.c:89: memcpy(cur_palette, scratch+7, ss);
	ld	c,6 (ix)
	ld	b,#0x00
	ld	de,#_scratch + 7
	push	bc
	push	de
	ld	hl,#_cur_palette
	push	hl
	call	_memcpy
	pop	af
	pop	af
	pop	af
;demo.c:91: close(&f);
	ld	hl,#0x0000
	add	hl,sp
	push	hl
	call	_close
	pop	af
;demo.c:92: return 1;
	ld	l,#0x01
00107$:
	ld	sp,ix
	pop	ix
	ret
_pal_load_end::
;demo.c:96: void pause() {
;	---------------------------------
; Function pause
; ---------------------------------
_pause_start::
_pause:
;demo.c:97: uint8_t i,j,k = 0;
;demo.c:98: for (i = 0; i < 255; i++) {	
	ld	bc,#0x0000
00104$:
	ld	a,b
	sub	a,#0xFF
	ret	NC
;demo.c:99: for (j = 0; j < 255; j++) {
	ld	e,c
	ld	d,#0xFF
00103$:
;demo.c:100: k++;
	inc	e
	dec	d
;demo.c:99: for (j = 0; j < 255; j++) {
	xor	a,a
	or	a,d
	jr	NZ,00103$
;demo.c:98: for (i = 0; i < 255; i++) {	
	ld	c,e
	inc	b
	jr	00104$
_pause_end::
;demo.c:106: uint8_t pack_load(char *file_name, int size) {
;	---------------------------------
; Function pack_load
; ---------------------------------
_pack_load_start::
_pack_load:
	push	ix
	ld	ix,#0
	add	ix,sp
	ld	hl,#-46
	add	hl,sp
	ld	sp,hl
;demo.c:111: memset((uint8_t *) &f, 0, sizeof(fcb));
	ld	hl,#0x0000
	add	hl,sp
	ld	c,l
	ld	b,h
	ld	hl,#0x002E
	push	hl
	ld	a,#0x00
	push	af
	inc	sp
	push	bc
	call	_memset
	pop	af
	pop	af
	inc	sp
;demo.c:112: scratch_clear();
	call	_scratch_clear
;demo.c:114: f.record_size = 128;
	ld	hl,#0x0000
	add	hl,sp
	ld	c,l
	ld	b,h
	ld	hl,#0x000F
	add	hl,bc
	ex	de,hl
	ld	a,#0x80
	ld	(de),a
;demo.c:115: f.drive = 0;
	ld	a,#0x00
	ld	(bc),a
;demo.c:117: memcpy(f.name, file_name, 11);
	ld	e,4 (ix)
	ld	d,5 (ix)
	inc	bc
	ld	hl,#0x000B
	push	hl
	push	de
	push	bc
	call	_memcpy
	pop	af
	pop	af
	pop	af
;demo.c:119: if (open(&f) != 0) return 0;
	ld	hl,#0x0000
	add	hl,sp
	push	hl
	call	_open
	pop	af
	xor	a,a
	or	a,l
	jr	Z,00116$
	ld	l,#0x00
	jp	00110$
;demo.c:121: while(total < size) {
00116$:
	ld	bc,#0x0000
00107$:
	ld	a,c
	sub	a,6 (ix)
	ld	a,b
	sbc	a,7 (ix)
	jp	P,00109$
;demo.c:122: if (block_set_data_ptr(scratch) != 0) return 0;
	push	bc
	ld	hl,#_scratch
	push	hl
	call	_block_set_data_ptr
	pop	af
	ld	e,l
	pop	bc
	xor	a,a
	or	a,e
	jr	Z,00104$
	ld	l,#0x00
	jr	00110$
00104$:
;demo.c:123: if (block_read(&f) != 0) return 0;
	ld	hl,#0x0000
	add	hl,sp
	push	bc
	push	hl
	call	_block_read
	pop	af
	ld	e,l
	pop	bc
	xor	a,a
	or	a,e
	jr	Z,00106$
	ld	l,#0x00
	jr	00110$
00106$:
;demo.c:125: memcpy(packbuffer+total,scratch,incr);
	ld	hl,#_packbuffer
	add	hl,bc
	ex	de,hl
	push	bc
	ld	hl,#0x0080
	push	hl
	ld	hl,#_scratch
	push	hl
	push	de
	call	_memcpy
	pop	af
	pop	af
	pop	af
	pop	bc
;demo.c:127: total+=incr;
	ld	hl,#0x0080
	add	hl,bc
	ld	c,l
	ld	b,h
	jp	00107$
00109$:
;demo.c:130: close(&f);
	ld	hl,#0x0000
	add	hl,sp
	push	hl
	call	_close
	pop	af
;demo.c:132: return 1;
	ld	l,#0x01
00110$:
	ld	sp,ix
	pop	ix
	ret
_pack_load_end::
;demo.c:135: void fadein() {
;	---------------------------------
; Function fadein
; ---------------------------------
_fadein_start::
_fadein:
	push	ix
	ld	ix,#0
	add	ix,sp
	push	af
;demo.c:138: if (tick < 4) return;
	ld	a,(#_tick+0)
	sub	a,#0x04
	ld	a,(#_tick+1)
	sbc	a,#0x00
	jp	P,00102$
	jp	00113$
00102$:
;demo.c:140: tick = 0;
	ld	hl,#_tick + 0
	ld	(hl), #0x00
	ld	hl,#_tick + 1
	ld	(hl), #0x00
;demo.c:142: for(i = 0; i < 32; i+=2) {
	ld	c,#0x00
00109$:
	ld	a,c
	sub	a,#0x20
	jp	NC,00112$
;demo.c:143: uint8_t r = scratch[i] >> 4;
	ld	a,#<_scratch
	add	a,c
	ld	e,a
	ld	a,#>_scratch
	adc	a,#0x00
	ld	d,a
	ld	a,(de)
	ld	b,a
	ld	e,b
	srl	e
	srl	e
	srl	e
	srl	e
;demo.c:144: uint8_t b = scratch[i] & 0xf;
	ld	a,b
	and	a,#0x0F
	ld	-1 (ix),a
;demo.c:145: uint8_t g = scratch[i+1];
	ld	d,c
	inc	d
	ld	a,#<_scratch
	add	a,d
	ld	l,a
	ld	a,#>_scratch
	adc	a,#0x00
	ld	h,a
	ld	d,(hl)
	ld	-2 (ix),d
;demo.c:147: if (r < (cur_palette[i] >> 4)) r++;
	ld	a,#<_cur_palette
	add	a,c
	ld	l,a
	ld	a,#>_cur_palette
	adc	a,#0x00
	ld	h,a
	ld	d,(hl)
	srl	d
	srl	d
	srl	d
	srl	d
	ld	a,e
	sub	a,d
	jr	NC,00104$
	inc	e
00104$:
;demo.c:148: if (b < (cur_palette[i] & 0xf)) b++;
	ld	a,#<_cur_palette
	add	a,c
	ld	l,a
	ld	a,#>_cur_palette
	adc	a,#0x00
	ld	h,a
	ld	a,(hl)
	and	a,#0x0F
	ld	b,a
	ld	a,-1 (ix)
	sub	a,b
	jr	NC,00106$
	inc	-1 (ix)
00106$:
;demo.c:150: scratch[i] = (r << 4) | b;
	ld	a,#<_scratch
	add	a,c
	ld	b,a
	ld	a,#>_scratch
	adc	a,#0x00
	ld	d,a
	ld	a,e
	rlca
	rlca
	rlca
	rlca
	and	a,#0xF0
	or	a,-1 (ix)
	ld	l,b
	ld	h,d
	ld	(hl),a
;demo.c:151: if (g < cur_palette[i+1]) scratch[i+1]++;
	ld	b,c
	inc	b
	ld	a,#<_cur_palette
	add	a,b
	ld	e,a
	ld	a,#>_cur_palette
	adc	a,#0x00
	ld	d,a
	ld	a,(de)
	ld	e,a
	ld	a,-2 (ix)
	sub	a,e
	jr	NC,00111$
	ld	a,#<_scratch
	add	a,b
	ld	b,a
	ld	a,#>_scratch
	adc	a,#0x00
	ld	e,a
	ld	l,b
	ld	h,a
	ld	a,(hl)
	inc	a
	ld	l,b
	ld	h,e
	ld	(hl),a
00111$:
;demo.c:142: for(i = 0; i < 32; i+=2) {
	inc	c
	inc	c
	jp	00109$
00112$:
;demo.c:155: vdp_load_palette(scratch);
	ld	hl,#_scratch
	push	hl
	call	_vdp_load_palette
	pop	af
00113$:
	ld	sp,ix
	pop	ix
	ret
_fadein_end::
;demo.c:164: void do_ymmm() {
;	---------------------------------
; Function do_ymmm
; ---------------------------------
_do_ymmm_start::
_do_ymmm:
	push	ix
	ld	ix,#0
	add	ix,sp
	ld	hl,#-19
	add	hl,sp
	ld	sp,hl
;demo.c:168: vdp_set_write_address(0x1,0x00);
	ld	hl,#0x0000
	push	hl
	ld	a,#0x01
	push	af
	inc	sp
	call	_vdp_set_write_address
	pop	af
	inc	sp
;demo.c:170: for (yo = 0; yo<212;yo+=step) {
	ld	hl,#_yo + 0
	ld	(hl), #0x00
00101$:
	ld	a,(#_yo+0)
	sub	a,#0xD4
	jp	NC,00105$
;demo.c:172: cmd.source_x = 0;
	ld	hl,#0x0004
	add	hl,sp
	ld	(hl),#0x00
	inc	hl
	ld	(hl),#0x00
;demo.c:173: cmd.source_y = yo;
	ld	hl,#0x0004
	add	hl,sp
	ld	c,l
	ld	b,h
	ld	hl,#0x0002
	add	hl,bc
	ld	-17 (ix),l
	ld	-16 (ix),h
	ld	hl,#_yo + 0
	ld	e,(hl)
	ld	d,#0x00
	ld	l,-17 (ix)
	ld	h,-16 (ix)
	ld	(hl),e
	inc	hl
	ld	(hl),d
;demo.c:174: cmd.dest_x = sintab[(vbicount+yo) & 255]>>2;
	ld	hl,#0x0004
	add	hl,bc
	ld	-17 (ix),l
	ld	-16 (ix),h
	ld	a,(#_yo+0)
	ld	-19 (ix),a
	ld	-18 (ix),#0x00
	ld	a,(#_vbicount+0)
	add	a,-19 (ix)
	ld	e,a
	ld	a,(#_vbicount+1)
	adc	a,-18 (ix)
	ld	d,#0x00
	ld	hl,#_sintab
	add	hl,de
	ld	e,(hl)
	sra	e
	sra	e
	ld	a,e
	rla	
	sbc	a,a
	ld	d,a
	ld	l,-17 (ix)
	ld	h,-16 (ix)
	ld	(hl),e
	inc	hl
	ld	(hl),d
;demo.c:175: cmd.dest_y = (yo-1);
	ld	hl,#0x0006
	add	hl,bc
	ld	-17 (ix),l
	ld	-16 (ix),h
	ld	e,-19 (ix)
	ld	d,-18 (ix)
	dec	de
	ld	l,-17 (ix)
	ld	h,-16 (ix)
	ld	(hl),e
	inc	hl
	ld	(hl),d
;demo.c:176: cmd.size_x = 255;
	ld	hl,#0x0008
	add	hl,bc
	ld	(hl),#0xFF
	inc	hl
	ld	(hl),#0x00
;demo.c:177: cmd.size_y = 4;
	ld	hl,#0x000A
	add	hl,bc
	ld	(hl),#0x04
	inc	hl
	ld	(hl),#0x00
;demo.c:178: cmd.data = 0;
	ld	hl,#0x000C
	add	hl,bc
	ex	de,hl
	ld	a,#0x00
	ld	(de),a
;demo.c:179: cmd.argument = 0;
	ld	hl,#0x000D
	add	hl,bc
	ex	de,hl
	ld	a,#0x00
	ld	(de),a
;demo.c:180: cmd.command = 0xD0;
	ld	hl,#0x000E
	add	hl,bc
	ex	de,hl
	ld	a,#0xD0
	ld	(de),a
;demo.c:183: vdp_copier(&cmd);
	push	bc
	call	_vdp_copier
	pop	af
;demo.c:184: yo+=step;
	ld	hl,#_yo + 0
	ld	c,(hl)
	ld	hl,#_yo
	ld	a,c
	add	a,#0x04
	ld	(hl),a
;demo.c:170: for (yo = 0; yo<212;yo+=step) {
	ld	hl,#_yo + 0
	ld	c,(hl)
	ld	hl,#_yo
	ld	a,c
	add	a,#0x04
	ld	(hl),a
	jp	00101$
00105$:
	ld	sp,ix
	pop	ix
	ret
_do_ymmm_end::
;demo.c:192: void main() {
;	---------------------------------
; Function main
; ---------------------------------
_main_start::
_main:
;demo.c:193: unsigned char quit=0;
	ld	c,#0x00
;demo.c:195: spindown();
	push	bc
	call	_spindown
	pop	bc
;demo.c:197: puts("demo init\r\n\r\n");
	push	bc
	ld	hl,#__str_0
	push	hl
	call	_puts
	pop	af
	pop	bc
;demo.c:199: puts("music init...");
	push	bc
	ld	hl,#__str_1
	push	hl
	call	_puts
	pop	af
	pop	bc
;demo.c:201: PLY_SongPtr = (char *)0x0103;
	ld	hl,#_PLY_SongPtr + 0
	ld	(hl), #0x03
	ld	hl,#_PLY_SongPtr + 1
	ld	(hl), #0x01
;demo.c:202: PLY_Init();
	push	bc
	call	_PLY_Init
	pop	bc
;demo.c:203: puts("done.\n\n");
	push	bc
	ld	hl,#__str_2
	push	hl
	call	_puts
	pop	af
	pop	bc
;demo.c:205: if(isvdp2())
	push	bc
	call	_isvdp2
	ld	a,l
	pop	bc
	ld	b,a
	or	a,a
	jr	Z,00102$
;demo.c:207: msx2_sethz(50);
	push	bc
	ld	a,#0x32
	push	af
	inc	sp
	call	_msx2_sethz
	inc	sp
	pop	bc
00102$:
;demo.c:211: puts("demo start\r\n");
	push	bc
	ld	hl,#__str_3
	push	hl
	call	_puts
	pop	af
	pop	bc
;demo.c:213: scratch_clear();
	push	bc
	call	_scratch_clear
	pop	bc
;demo.c:214: vdp_load_palette(scratch);
	push	bc
	ld	hl,#_scratch
	push	hl
	call	_vdp_load_palette
	pop	af
	pop	bc
;demo.c:216: vdp_set_screen5();
	push	bc
	call	_vdp_set_screen5
	pop	bc
;demo.c:218: vdp_register(VDP_VOFFSET,0);
	push	bc
	ld	hl,#0x0017
	push	hl
	call	_vdp_register
	pop	af
	pop	bc
;demo.c:220: pal_load("KETTU16 PL5", 32);
	push	bc
	ld	a,#0x20
	push	af
	inc	sp
	ld	hl,#__str_4
	push	hl
	call	_pal_load
	pop	af
	inc	sp
	pop	bc
;demo.c:222: memset((uint8_t *) &packbuffer, 0, 5000);
	push	bc
	ld	hl,#0x1388
	push	hl
	ld	a,#0x00
	push	af
	inc	sp
	ld	hl,#_packbuffer
	push	hl
	call	_memset
	pop	af
	pop	af
	inc	sp
	pop	bc
;demo.c:223: pack_load("KETTU16 PCK", 4502);
	push	bc
	ld	hl,#0x1196
	push	hl
	ld	hl,#__str_5
	push	hl
	call	_pack_load
	pop	af
	pop	af
	pop	bc
;demo.c:224: vdp_register(14,0);
	push	bc
	ld	hl,#0x000E
	push	hl
	call	_vdp_register
	pop	af
	pop	bc
;demo.c:226: bitbuster(packbuffer,0);
	push	bc
	ld	hl,#0x0000
	push	hl
	ld	hl,#_packbuffer
	push	hl
	call	_bitbuster
	pop	af
	pop	af
	pop	bc
;demo.c:228: scratch_clear();
	push	bc
	call	_scratch_clear
	pop	bc
;demo.c:230: install_isr(my_isr);
	push	bc
	ld	hl,#_my_isr
	push	hl
	call	_install_isr
	pop	af
	pop	bc
;demo.c:232: while (!quit) {
00108$:
	xor	a,a
	or	a,c
	jr	NZ,00110$
;demo.c:233: waitVB();
		halt 
;demo.c:235: if (vbicount < 192) fadein();
	ld	a,(#_vbicount+0)
	sub	a,#0xC0
	ld	a,(#_vbicount+1)
	sbc	a,#0x00
	jp	P,00104$
	push	bc
	call	_fadein
	pop	bc
	jr	00105$
00104$:
;demo.c:238: do_ymmm();
	push	bc
	call	_do_ymmm
	pop	bc
00105$:
;demo.c:241: if(space())
	push	bc
	ld	hl,#0x0108
	push	hl
	call	_ispressed
	pop	af
	ld	a,l
	pop	bc
	ld	b,a
	or	a,a
	jr	Z,00108$
;demo.c:242: quit=1;
	ld	c,#0x01
	jr	00108$
00110$:
;demo.c:245: waitVB();
		halt 
;demo.c:246: uninstall_isr();
	call	_uninstall_isr
;demo.c:247: PLY_Stop();
	call	_PLY_Stop
;demo.c:248: PLY_SendRegisters();
	call	_PLY_SendRegisters
;demo.c:250: screen(0);
	ld	a,#0x00
	push	af
	inc	sp
	call	_screen
	inc	sp
;demo.c:252: puts("demo exit\r\n\r\n");
	ld	hl,#__str_6
	push	hl
	call	_puts
	pop	af
;demo.c:254: exit(0);
	ld	a,#0x00
	push	af
	inc	sp
	call	_exit
	inc	sp
	ret
_main_end::
__str_0:
	.ascii "demo init"
	.db 0x0D
	.db 0x0A
	.db 0x0D
	.db 0x0A
	.db 0x00
__str_1:
	.ascii "music init..."
	.db 0x00
__str_2:
	.ascii "done."
	.db 0x0A
	.db 0x0A
	.db 0x00
__str_3:
	.ascii "demo start"
	.db 0x0D
	.db 0x0A
	.db 0x00
__str_4:
	.ascii "KETTU16 PL5"
	.db 0x00
__str_5:
	.ascii "KETTU16 PCK"
	.db 0x00
__str_6:
	.ascii "demo exit"
	.db 0x0D
	.db 0x0A
	.db 0x0D
	.db 0x0A
	.db 0x00
	.area _CODE
	.area _CABS
