;--------------------------------------------------------
; File Created by SDCC : free open source ANSI-C Compiler
; Version 2.9.0 #5416 (Mar 22 2009) (Mac OS X i386)
; This file was generated Thu Mar  1 19:00:27 2018
;--------------------------------------------------------
	.module demo
	.optsdcc -mz80
	
;--------------------------------------------------------
; Public variables in this module
;--------------------------------------------------------
	.globl _main
	.globl _do_quit
	.globl _tritiles
	.globl _drawtilescreen
	.globl _drawtritile
	.globl _boxes
	.globl _drawbox
	.globl _animplay
	.globl _bulbs
	.globl _twister
	.globl _font
	.globl _drawsine
	.globl _drawstr
	.globl _do_letter_tall
	.globl _do_letter
	.globl _raster_effu
	.globl _do_blocks
	.globl _do_ymmm
	.globl _fadein
	.globl _pck_load
	.globl _raw_load
	.globl _pause
	.globl _pal_load
	.globl _scratch_clear
	.globl _ge5_load
	.globl _color_isr
	.globl _my_isr
	.globl _isNthBitSet
	.globl _scenetimings
	.globl _scenepointers
	.globl _timeindex
	.globl _sceneindex
	.globl _triframes
	.globl _tripaltick
	.globl _tripal
	.globl _tri_inited
	.globl _prevbox_of
	.globl _boxes_of
	.globl _pbt
	.globl _pbx
	.globl _bonc
	.globl _bo
	.globl _bt
	.globl _by
	.globl _bx
	.globl _boxi
	.globl _boxes_y
	.globl _boxes_x
	.globl _prevy
	.globl _prevx
	.globl _buffer
	.globl _boxes_init
	.globl _anim_init
	.globl _enderdir
	.globl _ender
	.globl _ff2
	.globl _ff1
	.globl _bulbflipper
	.globl _twinited
	.globl _ff
	.globl _ly
	.globl _lx
	.globl _linenum
	.globl _flof
	.globl _btab
	.globl _bty
	.globl _btx
	.globl _bsy
	.globl _bsx
	.globl _block_init
	.globl _cc
	.globl _yofff
	.globl _cmd
	.globl _tick
	.globl _vbicount
	.globl _boxes_palette
	.globl _tf_palette
	.globl _twister_palette
	.globl _block_palette
	.globl _cur_palette
	.globl _scratch
	.globl _packbuffer
	.globl _tri_lookup_y
	.globl _tri_lookup_x
	.globl _sintab
	.globl _font_w
	.globl _font_y
	.globl _font_x
	.globl _tri_side2
	.globl _tri_side1
	.globl _tri_dia
	.globl _tri_up
	.globl _tri_center
	.globl _sintabx
;--------------------------------------------------------
; special function registers
;--------------------------------------------------------
;--------------------------------------------------------
;  ram data
;--------------------------------------------------------
	.area _DATA
_sintab::
	.ds 256
_tri_lookup_x::
	.ds 32
_tri_lookup_y::
	.ds 64
_packbuffer::
	.ds 16000
_scratch::
	.ds 128
_cur_palette::
	.ds 32
_block_palette::
	.ds 32
_twister_palette::
	.ds 32
_tf_palette::
	.ds 32
_boxes_palette::
	.ds 32
_vbicount::
	.ds 2
_tick::
	.ds 2
_cmd::
	.ds 15
_isNthBitSet_mask_1_1:
	.ds 8
_yofff::
	.ds 1
_cc::
	.ds 1
_flipper:
	.ds 2
_ymmmf:
	.ds 2
_block_init::
	.ds 1
_bsx::
	.ds 2
_bsy::
	.ds 2
_btx::
	.ds 2
_bty::
	.ds 2
_btab::
	.ds 32
_flof::
	.ds 2
_linenum::
	.ds 2
_lx::
	.ds 1
_ly::
	.ds 1
_ff::
	.ds 2
_twinited::
	.ds 2
_bulbflipper::
	.ds 2
_ff1::
	.ds 2
_ff2::
	.ds 2
_ender::
	.ds 2
_enderdir::
	.ds 2
_xo:
	.ds 2
_yo:
	.ds 2
_po:
	.ds 2
_frames:
	.ds 2
_anim_init::
	.ds 2
_boxes_init::
	.ds 1
_buffer::
	.ds 2
_prevx::
	.ds 2
_prevy::
	.ds 2
_boxes_x::
	.ds 4
_boxes_y::
	.ds 8
_boxi::
	.ds 1
_bx::
	.ds 2
_by::
	.ds 2
_bt::
	.ds 2
_bo::
	.ds 2
_bonc::
	.ds 2
_pbx::
	.ds 2
_pbt::
	.ds 2
_boxes_of::
	.ds 8
_prevbox_of::
	.ds 1
_tri_inited::
	.ds 1
_tripal::
	.ds 9
_tripaltick::
	.ds 1
_triframes::
	.ds 2
_sceneindex::
	.ds 2
_timeindex::
	.ds 2
_scenepointers::
	.ds 12
_scenetimings::
	.ds 24
;--------------------------------------------------------
; overlayable items in  ram 
;--------------------------------------------------------
	.area _OVERLAY
;--------------------------------------------------------
; external initialized ram data
;--------------------------------------------------------
;--------------------------------------------------------
; global & static initialisations
;--------------------------------------------------------
	.area _HOME
	.area _GSINIT
	.area _GSFINAL
	.area _GSINIT
;demo.c:131: static unsigned char mask[] = {1, 2, 4, 8, 16, 32, 64, 128};
	ld	hl,#_isNthBitSet_mask_1_1
	call	__initrleblock
	.db	8
	.db	0x01, 0x02, 0x04, 0x08, 0x10, 0x20, 0x40, 0x80
	.db	0
;types.h:27: signed char sintab[256]={
	ld	hl,#_sintab
	call	__initrleblock
	.db	59
	.db	0x00, 0x03, 0x06, 0x09, 0x0C, 0x0F, 0x12, 0x15
	.db	0x18, 0x1B, 0x1E, 0x21, 0x24, 0x27, 0x2A, 0x2D
	.db	0x30, 0x33, 0x36, 0x39, 0x3B, 0x3E, 0x41, 0x43
	.db	0x46, 0x49, 0x4B, 0x4E, 0x50, 0x52, 0x55, 0x57
	.db	0x59, 0x5B, 0x5E, 0x60, 0x62, 0x64, 0x66, 0x67
	.db	0x69, 0x6B, 0x6C, 0x6E, 0x70, 0x71, 0x72, 0x74
	.db	0x75, 0x76, 0x77, 0x78, 0x79, 0x7A, 0x7B, 0x7B
	.db	0x7C, 0x7D, 0x7D
	.db	#-5,#0x7E
	.db	1
	.db	0x7F
	.db	#-5,#0x7E
	.db	117
	.db	0x7D, 0x7D, 0x7C, 0x7B, 0x7B, 0x7A, 0x79, 0x78
	.db	0x77, 0x76, 0x75, 0x74, 0x72, 0x71, 0x70, 0x6E
	.db	0x6C, 0x6B, 0x69, 0x67, 0x66, 0x64, 0x62, 0x60
	.db	0x5E, 0x5B, 0x59, 0x57, 0x55, 0x52, 0x50, 0x4E
	.db	0x4B, 0x49, 0x46, 0x43, 0x41, 0x3E, 0x3B, 0x39
	.db	0x36, 0x33, 0x30, 0x2D, 0x2A, 0x27, 0x24, 0x21
	.db	0x1E, 0x1B, 0x18, 0x15, 0x12, 0x0F, 0x0C, 0x09
	.db	0x06, 0x03, 0x00, 0xFD, 0xFA, 0xF7, 0xF4, 0xF1
	.db	0xEE, 0xEB, 0xE8, 0xE5, 0xE2, 0xDF, 0xDC, 0xD9
	.db	0xD6, 0xD3, 0xD0, 0xCD, 0xCA, 0xC7, 0xC5, 0xC2
	.db	0xBF, 0xBD, 0xBA, 0xB7, 0xB5, 0xB2, 0xB0, 0xAE
	.db	0xAB, 0xA9, 0xA7, 0xA5, 0xA2, 0xA0, 0x9E, 0x9C
	.db	0x9A, 0x99, 0x97, 0x95, 0x94, 0x92, 0x90, 0x8F
	.db	0x8E, 0x8C, 0x8B, 0x8A, 0x89, 0x88, 0x87, 0x86
	.db	0x85, 0x85, 0x84, 0x83, 0x83
	.db	#-5,#0x82
	.db	1
	.db	0x81
	.db	#-5,#0x82
	.db	58
	.db	0x83, 0x83, 0x84, 0x85, 0x85, 0x86, 0x87, 0x88
	.db	0x89, 0x8A, 0x8B, 0x8C, 0x8E, 0x8F, 0x90, 0x92
	.db	0x94, 0x95, 0x97, 0x99, 0x9A, 0x9C, 0x9E, 0xA0
	.db	0xA2, 0xA5, 0xA7, 0xA9, 0xAB, 0xAE, 0xB0, 0xB2
	.db	0xB5, 0xB7, 0xBA, 0xBD, 0xBF, 0xC2, 0xC5, 0xC7
	.db	0xCA, 0xCD, 0xD0, 0xD3, 0xD6, 0xD9, 0xDC, 0xDF
	.db	0xE2, 0xE5, 0xE8, 0xEB, 0xEE, 0xF1, 0xF4, 0xF7
	.db	0xFA, 0xFD
	.db	0
;demo.c:113: uint8_t tri_lookup_x[16*2] = { 0 };
	ld	hl,#_tri_lookup_x
	call	__initrleblock
	.db	#-32,#0x00
	.db	0
;demo.c:114: int tri_lookup_y[16*2] = { 0 };
	ld	hl,#_tri_lookup_y
	call	__initrleblock
	.db	#-64,#0x00
	.db	0
;demo.c:116: uint8_t packbuffer[16000] = {0};
	ld	hl,#_packbuffer
	call	__initrleblock
	.db	#-127,#0x00
	.db	#-127,#0x00
	.db	#-127,#0x00
	.db	#-127,#0x00
	.db	#-127,#0x00
	.db	#-127,#0x00
	.db	#-127,#0x00
	.db	#-127,#0x00
	.db	#-127,#0x00
	.db	#-127,#0x00
	.db	#-127,#0x00
	.db	#-127,#0x00
	.db	#-127,#0x00
	.db	#-127,#0x00
	.db	#-127,#0x00
	.db	#-127,#0x00
	.db	#-127,#0x00
	.db	#-127,#0x00
	.db	#-127,#0x00
	.db	#-127,#0x00
	.db	#-127,#0x00
	.db	#-127,#0x00
	.db	#-127,#0x00
	.db	#-127,#0x00
	.db	#-127,#0x00
	.db	#-127,#0x00
	.db	#-127,#0x00
	.db	#-127,#0x00
	.db	#-127,#0x00
	.db	#-127,#0x00
	.db	#-127,#0x00
	.db	#-127,#0x00
	.db	#-127,#0x00
	.db	#-127,#0x00
	.db	#-127,#0x00
	.db	#-127,#0x00
	.db	#-127,#0x00
	.db	#-127,#0x00
	.db	#-127,#0x00
	.db	#-127,#0x00
	.db	#-127,#0x00
	.db	#-127,#0x00
	.db	#-127,#0x00
	.db	#-127,#0x00
	.db	#-127,#0x00
	.db	#-127,#0x00
	.db	#-127,#0x00
	.db	#-127,#0x00
	.db	#-127,#0x00
	.db	#-127,#0x00
	.db	#-127,#0x00
	.db	#-127,#0x00
	.db	#-127,#0x00
	.db	#-127,#0x00
	.db	#-127,#0x00
	.db	#-127,#0x00
	.db	#-127,#0x00
	.db	#-127,#0x00
	.db	#-127,#0x00
	.db	#-127,#0x00
	.db	#-127,#0x00
	.db	#-127,#0x00
	.db	#-127,#0x00
	.db	#-127,#0x00
	.db	#-127,#0x00
	.db	#-127,#0x00
	.db	#-127,#0x00
	.db	#-127,#0x00
	.db	#-127,#0x00
	.db	#-127,#0x00
	.db	#-127,#0x00
	.db	#-127,#0x00
	.db	#-127,#0x00
	.db	#-127,#0x00
	.db	#-127,#0x00
	.db	#-127,#0x00
	.db	#-127,#0x00
	.db	#-127,#0x00
	.db	#-127,#0x00
	.db	#-127,#0x00
	.db	#-127,#0x00
	.db	#-127,#0x00
	.db	#-127,#0x00
	.db	#-127,#0x00
	.db	#-127,#0x00
	.db	#-127,#0x00
	.db	#-127,#0x00
	.db	#-127,#0x00
	.db	#-127,#0x00
	.db	#-127,#0x00
	.db	#-127,#0x00
	.db	#-127,#0x00
	.db	#-127,#0x00
	.db	#-127,#0x00
	.db	#-127,#0x00
	.db	#-127,#0x00
	.db	#-127,#0x00
	.db	#-127,#0x00
	.db	#-127,#0x00
	.db	#-127,#0x00
	.db	#-127,#0x00
	.db	#-127,#0x00
	.db	#-127,#0x00
	.db	#-127,#0x00
	.db	#-127,#0x00
	.db	#-127,#0x00
	.db	#-127,#0x00
	.db	#-127,#0x00
	.db	#-127,#0x00
	.db	#-127,#0x00
	.db	#-127,#0x00
	.db	#-127,#0x00
	.db	#-127,#0x00
	.db	#-127,#0x00
	.db	#-127,#0x00
	.db	#-127,#0x00
	.db	#-127,#0x00
	.db	#-127,#0x00
	.db	#-127,#0x00
	.db	#-127,#0x00
	.db	#-127,#0x00
	.db	#-127,#0x00
	.db	#-127,#0x00
	.db	#-127,#0x00
	.db	#-127,#0x00
	.db	#-125,#0x00
	.db	0
;demo.c:125: volatile int vbicount=0;
	ld	iy,#_vbicount
	ld	0 (iy),#0x00
	ld	iy,#_vbicount
	ld	1 (iy),#0x00
;demo.c:126: volatile int tick=0;
	ld	iy,#_tick
	ld	0 (iy),#0x00
	ld	iy,#_tick
	ld	1 (iy),#0x00
;demo.c:326: uint8_t yofff = 0;
	ld	iy,#_yofff
	ld	0 (iy),#0x00
;demo.c:327: uint8_t cc = 0;
	ld	iy,#_cc
	ld	0 (iy),#0x00
;demo.c:328: static int flipper = 0;
	ld	iy,#_flipper
	ld	0 (iy),#0x00
	ld	iy,#_flipper
	ld	1 (iy),#0x00
;demo.c:329: static int ymmmf = 0;
	ld	iy,#_ymmmf
	ld	0 (iy),#0x00
	ld	iy,#_ymmmf
	ld	1 (iy),#0x00
;demo.c:360: char block_init = 0;
	ld	iy,#_block_init
	ld	0 (iy),#0x00
;demo.c:362: int bsx = 0;
	ld	iy,#_bsx
	ld	0 (iy),#0x00
	ld	iy,#_bsx
	ld	1 (iy),#0x00
;demo.c:363: int bsy = 0;
	ld	iy,#_bsy
	ld	0 (iy),#0x00
	ld	iy,#_bsy
	ld	1 (iy),#0x00
;demo.c:364: int btx = 0;
	ld	iy,#_btx
	ld	0 (iy),#0x00
	ld	iy,#_btx
	ld	1 (iy),#0x00
;demo.c:365: int bty = 0;
	ld	iy,#_bty
	ld	0 (iy),#0x00
	ld	iy,#_bty
	ld	1 (iy),#0x00
;demo.c:367: int btab[16] = {0};
	ld	hl,#_btab
	call	__initrleblock
	.db	#-32,#0x00
	.db	0
;demo.c:369: int flof = 0;
	ld	iy,#_flof
	ld	0 (iy),#0x00
	ld	iy,#_flof
	ld	1 (iy),#0x00
;demo.c:418: int linenum = 0;
	ld	iy,#_linenum
	ld	0 (iy),#0x00
	ld	iy,#_linenum
	ld	1 (iy),#0x00
;demo.c:476: uint8_t lx = 0;
	ld	iy,#_lx
	ld	0 (iy),#0x00
;demo.c:477: uint8_t ly = 0;
	ld	iy,#_ly
	ld	0 (iy),#0x00
;demo.c:540: int ff = 0;
	ld	iy,#_ff
	ld	0 (iy),#0x00
	ld	iy,#_ff
	ld	1 (iy),#0x00
;demo.c:541: int twinited = 0;
	ld	iy,#_twinited
	ld	0 (iy),#0x00
	ld	iy,#_twinited
	ld	1 (iy),#0x00
;demo.c:590: int bulbflipper = 1;
	ld	iy,#_bulbflipper
	ld	0 (iy),#0x01
	ld	iy,#_bulbflipper
	ld	1 (iy),#0x00
;demo.c:592: int ff1,ff2 = 0;
	ld	iy,#_ff2
	ld	0 (iy),#0x00
	ld	iy,#_ff2
	ld	1 (iy),#0x00
;demo.c:593: int ender = 212;
	ld	iy,#_ender
	ld	0 (iy),#0xD4
	ld	iy,#_ender
	ld	1 (iy),#0x00
;demo.c:594: int enderdir = -1;
	ld	iy,#_enderdir
	ld	0 (iy),#0xFF
	ld	iy,#_enderdir
	ld	1 (iy),#0xFF
;demo.c:651: static int xo = 0;
	ld	iy,#_xo
	ld	0 (iy),#0x00
	ld	iy,#_xo
	ld	1 (iy),#0x00
;demo.c:652: static int yo = 0;
	ld	iy,#_yo
	ld	0 (iy),#0x00
	ld	iy,#_yo
	ld	1 (iy),#0x00
;demo.c:653: static int po = 0;
	ld	iy,#_po
	ld	0 (iy),#0x00
	ld	iy,#_po
	ld	1 (iy),#0x00
;demo.c:654: static int frames = 0;
	ld	iy,#_frames
	ld	0 (iy),#0x00
	ld	iy,#_frames
	ld	1 (iy),#0x00
;demo.c:656: int anim_init = 0;
	ld	iy,#_anim_init
	ld	0 (iy),#0x00
	ld	iy,#_anim_init
	ld	1 (iy),#0x00
;demo.c:749: uint8_t boxes_init = 0;
	ld	iy,#_boxes_init
	ld	0 (iy),#0x00
;demo.c:750: int buffer = 1;
	ld	iy,#_buffer
	ld	0 (iy),#0x01
	ld	iy,#_buffer
	ld	1 (iy),#0x00
;demo.c:751: int prevx = -1;
	ld	iy,#_prevx
	ld	0 (iy),#0xFF
	ld	iy,#_prevx
	ld	1 (iy),#0xFF
;demo.c:753: uint8_t boxes_x[4] = {0,36,0,36};
	ld	hl,#_boxes_x
	call	__initrleblock
	.db	4
	.db	0x00, 0x24, 0x00, 0x24
	.db	0
;demo.c:754: int boxes_y[4] = {768,768,768+36,768+36};
	ld	hl,#_boxes_y
	call	__initrleblock
	.db	8
	.db	0x00, 0x03, 0x00, 0x03, 0x24, 0x03, 0x24, 0x03
	.db	0
;demo.c:755: uint8_t boxi = 0;
	ld	iy,#_boxi
	ld	0 (iy),#0x00
;demo.c:756: int bx = 220;
	ld	iy,#_bx
	ld	0 (iy),#0xDC
	ld	iy,#_bx
	ld	1 (iy),#0x00
;demo.c:757: int by = 84;
	ld	iy,#_by
	ld	0 (iy),#0x54
	ld	iy,#_by
	ld	1 (iy),#0x00
;demo.c:775: int bt = 0;
	ld	iy,#_bt
	ld	0 (iy),#0x00
	ld	iy,#_bt
	ld	1 (iy),#0x00
;demo.c:776: int bo = 0;
	ld	iy,#_bo
	ld	0 (iy),#0x00
	ld	iy,#_bo
	ld	1 (iy),#0x00
;demo.c:778: int bonc = 0;
	ld	iy,#_bonc
	ld	0 (iy),#0x00
	ld	iy,#_bonc
	ld	1 (iy),#0x00
;demo.c:779: int pbx = 0;
	ld	iy,#_pbx
	ld	0 (iy),#0x00
	ld	iy,#_pbx
	ld	1 (iy),#0x00
;demo.c:780: int pbt = 0;
	ld	iy,#_pbt
	ld	0 (iy),#0x00
	ld	iy,#_pbt
	ld	1 (iy),#0x00
;demo.c:782: int boxes_of[4] = {0,0,6,0};
	ld	hl,#_boxes_of
	call	__initrleblock
	.db	8
	.db	0x00, 0x00, 0x00, 0x00, 0x06, 0x00, 0x00, 0x00
	.db	0
;demo.c:783: uint8_t prevbox_of = 0;
	ld	iy,#_prevbox_of
	ld	0 (iy),#0x00
;demo.c:879: uint8_t tri_inited = 0;
	ld	iy,#_tri_inited
	ld	0 (iy),#0x00
;demo.c:907: char tripal[9] = {
	ld	hl,#_tripal
	call	__initrleblock
	.db	9
	.db	0x02, 0x02, 0x01, 0x01, 0x02, 0x03, 0x00, 0x04
	.db	0x02
	.db	0
;demo.c:913: uint8_t tripaltick = 0;
	ld	iy,#_tripaltick
	ld	0 (iy),#0x00
;demo.c:915: int triframes = 0;
	ld	iy,#_triframes
	ld	0 (iy),#0x00
	ld	iy,#_triframes
	ld	1 (iy),#0x00
;demo.c:1020: int sceneindex = 0;
	ld	iy,#_sceneindex
	ld	0 (iy),#0x00
	ld	iy,#_sceneindex
	ld	1 (iy),#0x00
;demo.c:1021: int timeindex = 0;
	ld	iy,#_timeindex
	ld	0 (iy),#0x00
	ld	iy,#_timeindex
	ld	1 (iy),#0x00
;demo.c:1023: void (*scenepointers[6])() = {
	ld	hl,#_scenepointers
	ld	(hl),#<_fadein
	inc	hl
	ld	(hl),#>_fadein
	ld	bc,#_scenepointers + 2
	ld	l,c
	ld	h,b
	ld	(hl),#<_bulbs
	inc	hl
	ld	(hl),#>_bulbs
	ld	hl, #_scenepointers + 4
	ld	(hl),#<_twister
	inc	hl
	ld	(hl),#>_twister
	ld	bc,#_scenepointers + 6
	ld	l,c
	ld	h,b
	ld	(hl),#<_boxes
	inc	hl
	ld	(hl),#>_boxes
	ld	hl, #_scenepointers + 8
	ld	(hl),#<_tritiles
	inc	hl
	ld	(hl),#>_tritiles
	ld	bc,#_scenepointers + 10
	ld	l,c
	ld	h,b
	ld	(hl),#<_animplay
	inc	hl
	ld	(hl),#>_animplay
;demo.c:1032: int scenetimings[12] = {
	ld	hl,#_scenetimings
	call	__initrleblock
	.db	24
	.db	0x00, 0x00, 0x40, 0x00, 0xC0, 0x00, 0x20, 0x03
	.db	0x20, 0x03, 0xDC, 0x05, 0xDC, 0x05, 0x50, 0x14
	.db	0x98, 0x08, 0xA0, 0x0F, 0xA0, 0x0F, 0x98, 0x3A
	.db	0
;--------------------------------------------------------
; Home
;--------------------------------------------------------
	.area _HOME
	.area _HOME
;--------------------------------------------------------
; code
;--------------------------------------------------------
	.area _CODE
;demo.c:130: int isNthBitSet (unsigned char c, int n) {
;	---------------------------------
; Function isNthBitSet
; ---------------------------------
_isNthBitSet_start::
_isNthBitSet:
	push	ix
	ld	ix,#0
	add	ix,sp
;demo.c:132: return ((c & mask[n]) != 0);
	ld	a,#<_isNthBitSet_mask_1_1
	add	a,5 (ix)
	ld	c,a
	ld	a,#>_isNthBitSet_mask_1_1
	adc	a,6 (ix)
	ld	b,a
	ld	a,(bc)
	and	a,4 (ix)
	jr	NZ,00103$
	ld	a,#0x01
	jr	00104$
00103$:
	xor	a,a
00104$:
	or	a,a
	sub	a,#0x01
	ld	a,#0x00
	rla
	ld	c,a
	ld	l,c
	ld	h,#0x00
	pop	ix
	ret
_isNthBitSet_end::
_sintabx:
	.dw #0x0078
	.dw #0x007A
	.dw #0x007D
	.dw #0x0080
	.dw #0x0083
	.dw #0x0086
	.dw #0x0089
	.dw #0x008C
	.dw #0x008F
	.dw #0x0092
	.dw #0x0095
	.dw #0x0098
	.dw #0x009A
	.dw #0x009D
	.dw #0x00A0
	.dw #0x00A3
	.dw #0x00A5
	.dw #0x00A8
	.dw #0x00AB
	.dw #0x00AD
	.dw #0x00B0
	.dw #0x00B3
	.dw #0x00B5
	.dw #0x00B8
	.dw #0x00BA
	.dw #0x00BD
	.dw #0x00BF
	.dw #0x00C1
	.dw #0x00C4
	.dw #0x00C6
	.dw #0x00C8
	.dw #0x00CA
	.dw #0x00CC
	.dw #0x00CE
	.dw #0x00D0
	.dw #0x00D2
	.dw #0x00D4
	.dw #0x00D6
	.dw #0x00D8
	.dw #0x00DA
	.dw #0x00DB
	.dw #0x00DD
	.dw #0x00DE
	.dw #0x00E0
	.dw #0x00E1
	.dw #0x00E3
	.dw #0x00E4
	.dw #0x00E5
	.dw #0x00E6
	.dw #0x00E7
	.dw #0x00E8
	.dw #0x00E9
	.dw #0x00EA
	.dw #0x00EB
	.dw #0x00EC
	.dw #0x00ED
	.dw #0x00ED
	.dw #0x00EE
	.dw #0x00EE
	.dw #0x00EF
	.dw #0x00EF
	.dw #0x00EF
	.dw #0x00EF
	.dw #0x00EF
	.dw #0x00F0
	.dw #0x00EF
	.dw #0x00EF
	.dw #0x00EF
	.dw #0x00EF
	.dw #0x00EF
	.dw #0x00EE
	.dw #0x00EE
	.dw #0x00ED
	.dw #0x00ED
	.dw #0x00EC
	.dw #0x00EB
	.dw #0x00EA
	.dw #0x00E9
	.dw #0x00E8
	.dw #0x00E7
	.dw #0x00E6
	.dw #0x00E5
	.dw #0x00E4
	.dw #0x00E3
	.dw #0x00E1
	.dw #0x00E0
	.dw #0x00DE
	.dw #0x00DD
	.dw #0x00DB
	.dw #0x00DA
	.dw #0x00D8
	.dw #0x00D6
	.dw #0x00D4
	.dw #0x00D2
	.dw #0x00D0
	.dw #0x00CE
	.dw #0x00CC
	.dw #0x00CA
	.dw #0x00C8
	.dw #0x00C6
	.dw #0x00C4
	.dw #0x00C1
	.dw #0x00BF
	.dw #0x00BD
	.dw #0x00BA
	.dw #0x00B8
	.dw #0x00B5
	.dw #0x00B3
	.dw #0x00B0
	.dw #0x00AD
	.dw #0x00AB
	.dw #0x00A8
	.dw #0x00A5
	.dw #0x00A3
	.dw #0x00A0
	.dw #0x009D
	.dw #0x009A
	.dw #0x0098
	.dw #0x0095
	.dw #0x0092
	.dw #0x008F
	.dw #0x008C
	.dw #0x0089
	.dw #0x0086
	.dw #0x0083
	.dw #0x0080
	.dw #0x007D
	.dw #0x007A
	.dw #0x0078
	.dw #0x0075
	.dw #0x0072
	.dw #0x006F
	.dw #0x006C
	.dw #0x0069
	.dw #0x0066
	.dw #0x0063
	.dw #0x0060
	.dw #0x005D
	.dw #0x005A
	.dw #0x0057
	.dw #0x0055
	.dw #0x0052
	.dw #0x004F
	.dw #0x004C
	.dw #0x004A
	.dw #0x0047
	.dw #0x0044
	.dw #0x0042
	.dw #0x003F
	.dw #0x003C
	.dw #0x003A
	.dw #0x0037
	.dw #0x0035
	.dw #0x0032
	.dw #0x0030
	.dw #0x002E
	.dw #0x002B
	.dw #0x0029
	.dw #0x0027
	.dw #0x0025
	.dw #0x0023
	.dw #0x0021
	.dw #0x001F
	.dw #0x001D
	.dw #0x001B
	.dw #0x0019
	.dw #0x0017
	.dw #0x0015
	.dw #0x0014
	.dw #0x0012
	.dw #0x0011
	.dw #0x000F
	.dw #0x000E
	.dw #0x000C
	.dw #0x000B
	.dw #0x000A
	.dw #0x0009
	.dw #0x0008
	.dw #0x0007
	.dw #0x0006
	.dw #0x0005
	.dw #0x0004
	.dw #0x0003
	.dw #0x0002
	.dw #0x0002
	.dw #0x0001
	.dw #0x0001
	.dw #0x0000
	.dw #0x0000
	.dw #0x0000
	.dw #0x0000
	.dw #0x0000
	.dw #0x0000
	.dw #0x0000
	.dw #0x0000
	.dw #0x0000
	.dw #0x0000
	.dw #0x0000
	.dw #0x0001
	.dw #0x0001
	.dw #0x0002
	.dw #0x0002
	.dw #0x0003
	.dw #0x0004
	.dw #0x0005
	.dw #0x0006
	.dw #0x0007
	.dw #0x0008
	.dw #0x0009
	.dw #0x000A
	.dw #0x000B
	.dw #0x000C
	.dw #0x000E
	.dw #0x000F
	.dw #0x0011
	.dw #0x0012
	.dw #0x0014
	.dw #0x0015
	.dw #0x0017
	.dw #0x0019
	.dw #0x001B
	.dw #0x001D
	.dw #0x001F
	.dw #0x0021
	.dw #0x0023
	.dw #0x0025
	.dw #0x0027
	.dw #0x0029
	.dw #0x002B
	.dw #0x002E
	.dw #0x0030
	.dw #0x0032
	.dw #0x0035
	.dw #0x0037
	.dw #0x003A
	.dw #0x003C
	.dw #0x003F
	.dw #0x0042
	.dw #0x0044
	.dw #0x0047
	.dw #0x004A
	.dw #0x004C
	.dw #0x004F
	.dw #0x0052
	.dw #0x0055
	.dw #0x0057
	.dw #0x005A
	.dw #0x005D
	.dw #0x0060
	.dw #0x0063
	.dw #0x0066
	.dw #0x0069
	.dw #0x006C
	.dw #0x006F
	.dw #0x0072
	.dw #0x0075
_tri_center:
	.db #0x08
	.db #0x0A
	.db #0x12
	.db #0x10
	.db #0x00
	.db #0x02
	.db #0x08
	.db #0x0A
	.db #0x0B
	.db #0x09
	.db #0x03
	.db #0x01
	.db #0x11
	.db #0x13
	.db #0x0B
	.db #0x09
	.db #0x0A
	.db #0x12
	.db #0x10
	.db #0x00
	.db #0x02
	.db #0x08
	.db #0x0A
	.db #0x12
	.db #0x13
	.db #0x0B
	.db #0x09
	.db #0x03
	.db #0x01
	.db #0x11
	.db #0x13
	.db #0x0B
	.db #0x12
	.db #0x10
	.db #0x00
	.db #0x02
	.db #0x08
	.db #0x0A
	.db #0x12
	.db #0x10
	.db #0x11
	.db #0x13
	.db #0x0B
	.db #0x09
	.db #0x03
	.db #0x01
	.db #0x11
	.db #0x13
	.db #0x10
	.db #0x00
	.db #0x02
	.db #0x08
	.db #0x0A
	.db #0x12
	.db #0x10
	.db #0x00
	.db #0x01
	.db #0x11
	.db #0x13
	.db #0x0B
	.db #0x09
	.db #0x03
	.db #0x01
	.db #0x11
	.db #0x00
	.db #0x02
	.db #0x08
	.db #0x0A
	.db #0x12
	.db #0x10
	.db #0x00
	.db #0x02
	.db #0x03
	.db #0x01
	.db #0x11
	.db #0x13
	.db #0x0B
	.db #0x09
	.db #0x03
	.db #0x01
	.db #0x02
	.db #0x08
	.db #0x0A
	.db #0x12
	.db #0x10
	.db #0x00
	.db #0x02
	.db #0x08
	.db #0x09
	.db #0x03
	.db #0x01
	.db #0x11
	.db #0x13
	.db #0x0B
	.db #0x09
	.db #0x03
	.db #0x01
	.db #0x0B
	.db #0x09
	.db #0x11
	.db #0x13
	.db #0x03
	.db #0x01
	.db #0x0B
	.db #0x0A
	.db #0x00
	.db #0x02
	.db #0x12
	.db #0x10
	.db #0x08
	.db #0x0A
	.db #0x00
	.db #0x03
	.db #0x01
	.db #0x0B
	.db #0x09
	.db #0x11
	.db #0x13
	.db #0x03
	.db #0x01
	.db #0x00
	.db #0x02
	.db #0x12
	.db #0x10
	.db #0x08
	.db #0x0A
	.db #0x00
	.db #0x02
	.db #0x13
	.db #0x03
	.db #0x01
	.db #0x0B
	.db #0x09
	.db #0x11
	.db #0x13
	.db #0x03
	.db #0x02
	.db #0x12
	.db #0x10
	.db #0x08
	.db #0x0A
	.db #0x00
	.db #0x02
	.db #0x12
	.db #0x11
	.db #0x13
	.db #0x03
	.db #0x01
	.db #0x0B
	.db #0x09
	.db #0x11
	.db #0x13
	.db #0x12
	.db #0x10
	.db #0x08
	.db #0x0A
	.db #0x00
	.db #0x02
	.db #0x12
	.db #0x10
	.db #0x09
	.db #0x11
	.db #0x13
	.db #0x03
	.db #0x01
	.db #0x0B
	.db #0x09
	.db #0x11
	.db #0x10
	.db #0x08
	.db #0x0A
	.db #0x00
	.db #0x02
	.db #0x12
	.db #0x10
	.db #0x08
	.db #0x0B
	.db #0x09
	.db #0x11
	.db #0x13
	.db #0x03
	.db #0x01
	.db #0x0B
	.db #0x09
	.db #0x08
	.db #0x0A
	.db #0x00
	.db #0x02
	.db #0x12
	.db #0x10
	.db #0x08
	.db #0x0A
_tri_up:
	.db #0x0A
	.db #0x12
	.db #0x10
	.db #0x00
	.db #0x02
	.db #0x08
	.db #0x0A
	.db #0x12
	.db #0x13
	.db #0x0B
	.db #0x09
	.db #0x03
	.db #0x01
	.db #0x11
	.db #0x13
	.db #0x0B
	.db #0x12
	.db #0x10
	.db #0x00
	.db #0x02
	.db #0x08
	.db #0x0A
	.db #0x12
	.db #0x10
	.db #0x11
	.db #0x13
	.db #0x0B
	.db #0x09
	.db #0x03
	.db #0x01
	.db #0x11
	.db #0x13
	.db #0x10
	.db #0x00
	.db #0x02
	.db #0x08
	.db #0x0A
	.db #0x12
	.db #0x10
	.db #0x00
	.db #0x01
	.db #0x11
	.db #0x13
	.db #0x0B
	.db #0x09
	.db #0x03
	.db #0x01
	.db #0x11
	.db #0x00
	.db #0x02
	.db #0x08
	.db #0x0A
	.db #0x12
	.db #0x10
	.db #0x00
	.db #0x02
	.db #0x03
	.db #0x01
	.db #0x11
	.db #0x13
	.db #0x0B
	.db #0x09
	.db #0x03
	.db #0x01
	.db #0x02
	.db #0x08
	.db #0x0A
	.db #0x12
	.db #0x10
	.db #0x00
	.db #0x02
	.db #0x08
	.db #0x09
	.db #0x03
	.db #0x01
	.db #0x11
	.db #0x13
	.db #0x0B
	.db #0x09
	.db #0x03
	.db #0x08
	.db #0x0A
	.db #0x12
	.db #0x10
	.db #0x00
	.db #0x02
	.db #0x08
	.db #0x0A
	.db #0x0B
	.db #0x09
	.db #0x03
	.db #0x01
	.db #0x11
	.db #0x13
	.db #0x0B
	.db #0x09
	.db #0x0A
	.db #0x12
	.db #0x10
	.db #0x00
	.db #0x02
	.db #0x08
	.db #0x0A
	.db #0x12
	.db #0x13
	.db #0x0B
	.db #0x09
	.db #0x03
	.db #0x01
	.db #0x11
	.db #0x13
	.db #0x0B
	.db #0x12
	.db #0x10
	.db #0x00
	.db #0x02
	.db #0x08
	.db #0x0A
	.db #0x12
	.db #0x10
	.db #0x11
	.db #0x13
	.db #0x0B
	.db #0x09
	.db #0x03
	.db #0x01
	.db #0x11
	.db #0x13
	.db #0x10
	.db #0x00
	.db #0x02
	.db #0x08
	.db #0x0A
	.db #0x12
	.db #0x10
	.db #0x00
	.db #0x01
	.db #0x11
	.db #0x13
	.db #0x0B
	.db #0x09
	.db #0x03
	.db #0x01
	.db #0x11
	.db #0x00
	.db #0x02
	.db #0x08
	.db #0x0A
	.db #0x12
	.db #0x10
	.db #0x00
	.db #0x02
	.db #0x03
	.db #0x01
	.db #0x11
	.db #0x13
	.db #0x0B
	.db #0x09
	.db #0x03
	.db #0x01
	.db #0x02
	.db #0x08
	.db #0x0A
	.db #0x12
	.db #0x10
	.db #0x00
	.db #0x02
	.db #0x08
	.db #0x09
	.db #0x03
	.db #0x01
	.db #0x11
	.db #0x13
	.db #0x0B
	.db #0x09
	.db #0x03
	.db #0x08
	.db #0x0A
	.db #0x12
	.db #0x10
	.db #0x00
	.db #0x02
	.db #0x08
	.db #0x0A
	.db #0x0B
	.db #0x09
	.db #0x03
	.db #0x01
	.db #0x11
	.db #0x13
	.db #0x0B
	.db #0x09
_tri_dia:
	.db #0x05
	.db #0x1B
	.db #0x0F
	.db #0x1D
	.db #0x15
	.db #0x19
	.db #0x05
	.db #0x1B
	.db #0x0F
	.db #0x1D
	.db #0x15
	.db #0x19
	.db #0x05
	.db #0x1B
	.db #0x0F
	.db #0x1D
	.db #0x1D
	.db #0x05
	.db #0x19
	.db #0x0F
	.db #0x1B
	.db #0x15
	.db #0x1D
	.db #0x05
	.db #0x19
	.db #0x0F
	.db #0x1B
	.db #0x15
	.db #0x1D
	.db #0x05
	.db #0x19
	.db #0x0F
	.db #0x0F
	.db #0x1D
	.db #0x15
	.db #0x19
	.db #0x05
	.db #0x1B
	.db #0x0F
	.db #0x1D
	.db #0x15
	.db #0x19
	.db #0x05
	.db #0x1B
	.db #0x0F
	.db #0x1D
	.db #0x15
	.db #0x19
	.db #0x19
	.db #0x0F
	.db #0x1B
	.db #0x15
	.db #0x1D
	.db #0x05
	.db #0x19
	.db #0x0F
	.db #0x1B
	.db #0x15
	.db #0x1D
	.db #0x05
	.db #0x19
	.db #0x0F
	.db #0x1B
	.db #0x15
	.db #0x15
	.db #0x19
	.db #0x05
	.db #0x1B
	.db #0x0F
	.db #0x1D
	.db #0x15
	.db #0x19
	.db #0x05
	.db #0x1B
	.db #0x0F
	.db #0x1D
	.db #0x15
	.db #0x19
	.db #0x05
	.db #0x1B
	.db #0x1B
	.db #0x15
	.db #0x1D
	.db #0x05
	.db #0x19
	.db #0x0F
	.db #0x1B
	.db #0x15
	.db #0x1D
	.db #0x05
	.db #0x19
	.db #0x0F
	.db #0x1B
	.db #0x15
	.db #0x1D
	.db #0x05
	.db #0x05
	.db #0x1B
	.db #0x0F
	.db #0x1D
	.db #0x15
	.db #0x19
	.db #0x05
	.db #0x1B
	.db #0x0F
	.db #0x1D
	.db #0x15
	.db #0x19
	.db #0x05
	.db #0x1B
	.db #0x0F
	.db #0x1D
	.db #0x1D
	.db #0x05
	.db #0x19
	.db #0x0F
	.db #0x1B
	.db #0x15
	.db #0x1D
	.db #0x05
	.db #0x19
	.db #0x0F
	.db #0x1B
	.db #0x15
	.db #0x1D
	.db #0x05
	.db #0x19
	.db #0x0F
	.db #0x0F
	.db #0x1D
	.db #0x15
	.db #0x19
	.db #0x05
	.db #0x1B
	.db #0x0F
	.db #0x1D
	.db #0x15
	.db #0x19
	.db #0x05
	.db #0x1B
	.db #0x0F
	.db #0x1D
	.db #0x15
	.db #0x19
	.db #0x19
	.db #0x0F
	.db #0x1B
	.db #0x15
	.db #0x1D
	.db #0x05
	.db #0x19
	.db #0x0F
	.db #0x1B
	.db #0x15
	.db #0x1D
	.db #0x05
	.db #0x19
	.db #0x0F
	.db #0x1B
	.db #0x15
	.db #0x15
	.db #0x19
	.db #0x05
	.db #0x1B
	.db #0x0F
	.db #0x1D
	.db #0x15
	.db #0x19
	.db #0x05
	.db #0x1B
	.db #0x0F
	.db #0x1D
	.db #0x15
	.db #0x19
	.db #0x05
	.db #0x1B
	.db #0x1B
	.db #0x15
	.db #0x1D
	.db #0x05
	.db #0x19
	.db #0x0F
	.db #0x1B
	.db #0x15
	.db #0x1D
	.db #0x05
	.db #0x19
	.db #0x0F
	.db #0x1B
	.db #0x15
	.db #0x1D
	.db #0x05
_tri_side1:
	.db #0x0A
	.db #0x12
	.db #0x10
	.db #0x00
	.db #0x02
	.db #0x08
	.db #0x0A
	.db #0x12
	.db #0x10
	.db #0x00
	.db #0x02
	.db #0x08
	.db #0x0A
	.db #0x12
	.db #0x10
	.db #0x00
	.db #0x12
	.db #0x10
	.db #0x00
	.db #0x02
	.db #0x08
	.db #0x0A
	.db #0x12
	.db #0x10
	.db #0x00
	.db #0x02
	.db #0x08
	.db #0x0A
	.db #0x12
	.db #0x10
	.db #0x00
	.db #0x02
	.db #0x10
	.db #0x00
	.db #0x02
	.db #0x08
	.db #0x0A
	.db #0x12
	.db #0x10
	.db #0x00
	.db #0x02
	.db #0x08
	.db #0x0A
	.db #0x12
	.db #0x10
	.db #0x00
	.db #0x02
	.db #0x08
	.db #0x00
	.db #0x02
	.db #0x08
	.db #0x0A
	.db #0x12
	.db #0x10
	.db #0x00
	.db #0x02
	.db #0x08
	.db #0x0A
	.db #0x12
	.db #0x10
	.db #0x00
	.db #0x02
	.db #0x08
	.db #0x0A
	.db #0x02
	.db #0x08
	.db #0x0A
	.db #0x12
	.db #0x10
	.db #0x00
	.db #0x02
	.db #0x08
	.db #0x0A
	.db #0x12
	.db #0x10
	.db #0x00
	.db #0x02
	.db #0x08
	.db #0x0A
	.db #0x12
	.db #0x08
	.db #0x0A
	.db #0x12
	.db #0x10
	.db #0x00
	.db #0x02
	.db #0x08
	.db #0x0A
	.db #0x12
	.db #0x10
	.db #0x00
	.db #0x02
	.db #0x08
	.db #0x0A
	.db #0x12
	.db #0x10
	.db #0x0A
	.db #0x12
	.db #0x10
	.db #0x00
	.db #0x02
	.db #0x08
	.db #0x0A
	.db #0x12
	.db #0x10
	.db #0x00
	.db #0x02
	.db #0x08
	.db #0x0A
	.db #0x12
	.db #0x10
	.db #0x00
	.db #0x12
	.db #0x10
	.db #0x00
	.db #0x02
	.db #0x08
	.db #0x0A
	.db #0x12
	.db #0x10
	.db #0x00
	.db #0x02
	.db #0x08
	.db #0x0A
	.db #0x12
	.db #0x10
	.db #0x00
	.db #0x02
	.db #0x10
	.db #0x00
	.db #0x02
	.db #0x08
	.db #0x0A
	.db #0x12
	.db #0x10
	.db #0x00
	.db #0x02
	.db #0x08
	.db #0x0A
	.db #0x12
	.db #0x10
	.db #0x00
	.db #0x02
	.db #0x08
	.db #0x00
	.db #0x02
	.db #0x08
	.db #0x0A
	.db #0x12
	.db #0x10
	.db #0x00
	.db #0x02
	.db #0x08
	.db #0x0A
	.db #0x12
	.db #0x10
	.db #0x00
	.db #0x02
	.db #0x08
	.db #0x0A
	.db #0x02
	.db #0x08
	.db #0x0A
	.db #0x12
	.db #0x10
	.db #0x00
	.db #0x02
	.db #0x08
	.db #0x0A
	.db #0x12
	.db #0x10
	.db #0x00
	.db #0x02
	.db #0x08
	.db #0x0A
	.db #0x12
	.db #0x08
	.db #0x0A
	.db #0x12
	.db #0x10
	.db #0x00
	.db #0x02
	.db #0x08
	.db #0x0A
	.db #0x12
	.db #0x10
	.db #0x00
	.db #0x02
	.db #0x08
	.db #0x0A
	.db #0x12
	.db #0x10
_tri_side2:
	.db #0x00
	.db #0x10
	.db #0x12
	.db #0x0A
	.db #0x08
	.db #0x02
	.db #0x00
	.db #0x10
	.db #0x12
	.db #0x0A
	.db #0x08
	.db #0x02
	.db #0x00
	.db #0x10
	.db #0x12
	.db #0x0A
	.db #0x02
	.db #0x00
	.db #0x10
	.db #0x12
	.db #0x0A
	.db #0x08
	.db #0x02
	.db #0x00
	.db #0x10
	.db #0x12
	.db #0x0A
	.db #0x08
	.db #0x02
	.db #0x00
	.db #0x10
	.db #0x12
	.db #0x08
	.db #0x02
	.db #0x00
	.db #0x10
	.db #0x12
	.db #0x0A
	.db #0x08
	.db #0x02
	.db #0x00
	.db #0x10
	.db #0x12
	.db #0x0A
	.db #0x08
	.db #0x02
	.db #0x00
	.db #0x10
	.db #0x0A
	.db #0x08
	.db #0x02
	.db #0x00
	.db #0x10
	.db #0x12
	.db #0x0A
	.db #0x08
	.db #0x02
	.db #0x00
	.db #0x10
	.db #0x12
	.db #0x0A
	.db #0x08
	.db #0x02
	.db #0x00
	.db #0x12
	.db #0x0A
	.db #0x08
	.db #0x02
	.db #0x00
	.db #0x10
	.db #0x12
	.db #0x0A
	.db #0x08
	.db #0x02
	.db #0x00
	.db #0x10
	.db #0x12
	.db #0x0A
	.db #0x08
	.db #0x02
	.db #0x10
	.db #0x12
	.db #0x0A
	.db #0x08
	.db #0x02
	.db #0x00
	.db #0x10
	.db #0x12
	.db #0x0A
	.db #0x08
	.db #0x02
	.db #0x00
	.db #0x10
	.db #0x12
	.db #0x0A
	.db #0x08
	.db #0x00
	.db #0x10
	.db #0x12
	.db #0x0A
	.db #0x08
	.db #0x02
	.db #0x00
	.db #0x10
	.db #0x12
	.db #0x0A
	.db #0x08
	.db #0x02
	.db #0x00
	.db #0x10
	.db #0x12
	.db #0x0A
	.db #0x02
	.db #0x00
	.db #0x10
	.db #0x12
	.db #0x0A
	.db #0x08
	.db #0x02
	.db #0x00
	.db #0x10
	.db #0x12
	.db #0x0A
	.db #0x08
	.db #0x02
	.db #0x00
	.db #0x10
	.db #0x12
	.db #0x08
	.db #0x02
	.db #0x00
	.db #0x10
	.db #0x12
	.db #0x0A
	.db #0x08
	.db #0x02
	.db #0x00
	.db #0x10
	.db #0x12
	.db #0x0A
	.db #0x08
	.db #0x02
	.db #0x00
	.db #0x10
	.db #0x0A
	.db #0x08
	.db #0x02
	.db #0x00
	.db #0x10
	.db #0x12
	.db #0x0A
	.db #0x08
	.db #0x02
	.db #0x00
	.db #0x10
	.db #0x12
	.db #0x0A
	.db #0x08
	.db #0x02
	.db #0x00
	.db #0x12
	.db #0x0A
	.db #0x08
	.db #0x02
	.db #0x00
	.db #0x10
	.db #0x12
	.db #0x0A
	.db #0x08
	.db #0x02
	.db #0x00
	.db #0x10
	.db #0x12
	.db #0x0A
	.db #0x08
	.db #0x02
	.db #0x10
	.db #0x12
	.db #0x0A
	.db #0x08
	.db #0x02
	.db #0x00
	.db #0x10
	.db #0x12
	.db #0x0A
	.db #0x08
	.db #0x02
	.db #0x00
	.db #0x10
	.db #0x12
	.db #0x0A
	.db #0x08
;demo.c:139: void my_isr(void) interrupt
;	---------------------------------
; Function my_isr
; ---------------------------------
_my_isr_start::
_my_isr:
	push	af
	push	bc
	push	de
	push	hl
	push	iy
;demo.c:141: DI;
		di 
;demo.c:143: READ_VDP_STATUS;
		in a,(#0x99) 
;demo.c:145: PLY_Play();
	call	_PLY_Play
;demo.c:146: PLY_SendRegisters();
	call	_PLY_SendRegisters
;demo.c:148: vbicount+=1;
	ld	iy,#_vbicount
	inc	0 (iy)
	jr	NZ,00103$
	ld	iy,#_vbicount
	inc	1 (iy)
00103$:
;demo.c:149: tick++;
	ld	iy,#_tick
	inc	0 (iy)
	jr	NZ,00104$
	ld	iy,#_tick
	inc	1 (iy)
00104$:
;demo.c:151: EI;
		ei 
	pop	iy
	pop	hl
	pop	de
	pop	bc
	pop	af
	reti
_my_isr_end::
;demo.c:154: void color_isr(void) interrupt
;	---------------------------------
; Function color_isr
; ---------------------------------
_color_isr_start::
_color_isr:
	push	af
	push	bc
	push	de
	push	hl
	push	iy
;demo.c:156: DI;
		di 
;demo.c:158: if(isNthBitSet(vdp2_status(1),0)) {
	ld	a,#0x01
	push	af
	inc	sp
	call	_vdp2_status
	inc	sp
	ld	c,l
	ld	hl,#0x0000
	push	hl
	ld	a,c
	push	af
	inc	sp
	call	_isNthBitSet
	pop	af
	inc	sp
	ld	b,h
	ld	c,l
	ld	a,c
	or	a,b
	jr	Z,00102$
;demo.c:159: vdp_register(VDP_VOFFSET,sintab[vbicount & 255]);
	ld	hl,#_vbicount + 0
	ld	c,(hl)
	ld	b,#0x00
	ld	hl,#_sintab
	add	hl,bc
	ld	a,(hl)
	push	af
	inc	sp
	ld	a,#0x17
	push	af
	inc	sp
	call	_vdp_register
	pop	af
;demo.c:160: READ_VDP_STATUS;
		in a,(#0x99) 
	jr	00103$
00102$:
;demo.c:163: READ_VDP_STATUS;
		in a,(#0x99) 
;demo.c:164: vbicount++;
	ld	iy,#_vbicount
	inc	0 (iy)
	jr	NZ,00107$
	ld	iy,#_vbicount
	inc	1 (iy)
00107$:
;demo.c:167: PLY_Play();
	call	_PLY_Play
;demo.c:168: PLY_SendRegisters();
	call	_PLY_SendRegisters
00103$:
;demo.c:171: EI;
		ei 
	pop	iy
	pop	hl
	pop	de
	pop	bc
	pop	af
	reti
_color_isr_end::
;demo.c:178: uint8_t ge5_load(char *file_name, uint8_t vramh, uint16_t vraml, int debugprint) {
;	---------------------------------
; Function ge5_load
; ---------------------------------
_ge5_load_start::
_ge5_load:
	push	ix
	ld	ix,#0
	add	ix,sp
	ld	hl,#-46
	add	hl,sp
	ld	sp,hl
;demo.c:182: if(debugprint == 1) {
	ld	a,9 (ix)
	sub	a,#0x01
	jr	NZ,00125$
	ld	a,10 (ix)
	or	a,a
	jr	Z,00126$
00125$:
	jr	00102$
00126$:
;demo.c:183: puts("loading ge5file: ");
	ld	hl,#__str_0
	push	hl
	call	_puts
	pop	af
;demo.c:184: puts(file_name);
	ld	l,4 (ix)
	ld	h,5 (ix)
	push	hl
	call	_puts
	pop	af
;demo.c:185: puts("\r\n");
	ld	hl,#__str_1
	push	hl
	call	_puts
	pop	af
00102$:
;demo.c:188: memset((uint8_t *) &f, 0, sizeof(fcb));
	ld	hl,#0x0000
	add	hl,sp
	ld	c,l
	ld	b,h
	ld	hl,#0x002E
	push	hl
	ld	a,#0x00
	push	af
	inc	sp
	push	bc
	call	_memset
	pop	af
	pop	af
	inc	sp
;demo.c:190: f.record_size = 128;
	ld	hl,#0x0000
	add	hl,sp
	ld	c,l
	ld	b,h
	ld	hl,#0x000F
	add	hl,bc
	ex	de,hl
	ld	a,#0x80
	ld	(de),a
;demo.c:191: f.drive = 0;
	ld	a,#0x00
	ld	(bc),a
;demo.c:193: memcpy(f.name, file_name, 11);
	ld	e,4 (ix)
	ld	d,5 (ix)
	inc	bc
	ld	hl,#0x000B
	push	hl
	push	de
	push	bc
	call	_memcpy
	pop	af
	pop	af
	pop	af
;demo.c:195: if (open(&f) != 0) return 0;
	ld	hl,#0x0000
	add	hl,sp
	push	hl
	call	_open
	pop	af
	xor	a,a
	or	a,l
	jr	Z,00104$
	ld	l,#0x00
	jp	00116$
00104$:
;demo.c:196: vdp_set_write_address(vramh, vraml);
	ld	l,7 (ix)
	ld	h,8 (ix)
	push	hl
	ld	a,6 (ix)
	push	af
	inc	sp
	call	_vdp_set_write_address
	pop	af
	inc	sp
;demo.c:198: for (i = 0; i < 213; i++) {
	ld	c,#0x00
00112$:
	ld	a,c
	sub	a,#0xD5
	jp	NC,00115$
;demo.c:199: if (block_set_data_ptr(scratch) != 0) return 0;
	push	bc
	ld	hl,#_scratch
	push	hl
	call	_block_set_data_ptr
	pop	af
	ld	a,l
	pop	bc
	ld	b,a
	or	a,a
	jr	Z,00106$
	ld	l,#0x00
	jp	00116$
00106$:
;demo.c:200: if (block_read(&f) != 0) return 0;
	ld	hl,#0x0000
	add	hl,sp
	push	bc
	push	hl
	call	_block_read
	pop	af
	ld	a,l
	pop	bc
	ld	b,a
	or	a,a
	jr	Z,00108$
	ld	l,#0x00
	jr	00116$
00108$:
;demo.c:202: if (i == 0) vdp_load_screen(scratch + 7, 121);   // to skip GE5 header
	xor	a,a
	or	a,c
	jr	NZ,00110$
	ld	de,#_scratch + 7
	push	bc
	ld	a,#0x79
	push	af
	inc	sp
	push	de
	call	_vdp_load_screen
	pop	af
	inc	sp
	pop	bc
	jr	00114$
00110$:
;demo.c:203: else vdp_load_screen(scratch, 128);
	push	bc
	ld	a,#0x80
	push	af
	inc	sp
	ld	hl,#_scratch
	push	hl
	call	_vdp_load_screen
	pop	af
	inc	sp
	pop	bc
00114$:
;demo.c:198: for (i = 0; i < 213; i++) {
	inc	c
	jp	00112$
00115$:
;demo.c:206: close(&f);
	ld	hl,#0x0000
	add	hl,sp
	push	hl
	call	_close
	pop	af
;demo.c:208: return 1;
	ld	l,#0x01
00116$:
	ld	sp,ix
	pop	ix
	ret
_ge5_load_end::
__str_0:
	.ascii "loading ge5file: "
	.db 0x00
__str_1:
	.db 0x0D
	.db 0x0A
	.db 0x00
;demo.c:211: void scratch_clear() {
;	---------------------------------
; Function scratch_clear
; ---------------------------------
_scratch_clear_start::
_scratch_clear:
;demo.c:212: memset((uint8_t *) &scratch, 0, 128);
	ld	hl,#0x0080
	push	hl
	ld	a,#0x00
	push	af
	inc	sp
	ld	hl,#_scratch
	push	hl
	call	_memset
	pop	af
	pop	af
	inc	sp
	ret
_scratch_clear_end::
;demo.c:215: uint8_t pal_load(char *file_name, uint8_t ss, int debugprint) {
;	---------------------------------
; Function pal_load
; ---------------------------------
_pal_load_start::
_pal_load:
	push	ix
	ld	ix,#0
	add	ix,sp
	ld	hl,#-46
	add	hl,sp
	ld	sp,hl
;demo.c:218: if(debugprint == 1) {
	ld	a,7 (ix)
	sub	a,#0x01
	jr	NZ,00115$
	ld	a,8 (ix)
	or	a,a
	jr	Z,00116$
00115$:
	jr	00102$
00116$:
;demo.c:219: puts("loading palfile: ");
	ld	hl,#__str_2
	push	hl
	call	_puts
	pop	af
;demo.c:220: puts(file_name);
	ld	l,4 (ix)
	ld	h,5 (ix)
	push	hl
	call	_puts
	pop	af
;demo.c:221: puts("\r\n");
	ld	hl,#__str_3
	push	hl
	call	_puts
	pop	af
00102$:
;demo.c:224: memset((uint8_t *) &f, 0, sizeof(fcb));
	ld	hl,#0x0000
	add	hl,sp
	ld	c,l
	ld	b,h
	ld	hl,#0x002E
	push	hl
	ld	a,#0x00
	push	af
	inc	sp
	push	bc
	call	_memset
	pop	af
	pop	af
	inc	sp
;demo.c:225: scratch_clear();
	call	_scratch_clear
;demo.c:227: f.record_size = ss;
	ld	hl,#0x0000
	add	hl,sp
	ld	c,l
	ld	b,h
	ld	hl,#0x000F
	add	hl,bc
	ex	de,hl
	ld	a,6 (ix)
	ld	(de),a
;demo.c:228: f.drive = 0;
	ld	a,#0x00
	ld	(bc),a
;demo.c:230: memcpy(f.name, file_name, 11);
	ld	e,4 (ix)
	ld	d,5 (ix)
	inc	bc
	ld	hl,#0x000B
	push	hl
	push	de
	push	bc
	call	_memcpy
	pop	af
	pop	af
	pop	af
;demo.c:232: if (open(&f) != 0) return 0;
	ld	hl,#0x0000
	add	hl,sp
	push	hl
	call	_open
	pop	af
	xor	a,a
	or	a,l
	jr	Z,00104$
	ld	l,#0x00
	jr	00109$
00104$:
;demo.c:233: if (block_set_data_ptr(scratch) != 0) return 0;
	ld	hl,#_scratch
	push	hl
	call	_block_set_data_ptr
	pop	af
	xor	a,a
	or	a,l
	jr	Z,00106$
	ld	l,#0x00
	jr	00109$
00106$:
;demo.c:234: if (block_read(&f) != 0) return 0;
	ld	hl,#0x0000
	add	hl,sp
	push	hl
	call	_block_read
	pop	af
	xor	a,a
	or	a,l
	jr	Z,00108$
	ld	l,#0x00
	jr	00109$
00108$:
;demo.c:236: memcpy(cur_palette, scratch+7, ss);
	ld	c,6 (ix)
	ld	b,#0x00
	ld	de,#_scratch + 7
	push	bc
	push	de
	ld	hl,#_cur_palette
	push	hl
	call	_memcpy
	pop	af
	pop	af
	pop	af
;demo.c:238: close(&f);
	ld	hl,#0x0000
	add	hl,sp
	push	hl
	call	_close
	pop	af
;demo.c:239: return 1;
	ld	l,#0x01
00109$:
	ld	sp,ix
	pop	ix
	ret
_pal_load_end::
__str_2:
	.ascii "loading palfile: "
	.db 0x00
__str_3:
	.db 0x0D
	.db 0x0A
	.db 0x00
;demo.c:243: void pause() {
;	---------------------------------
; Function pause
; ---------------------------------
_pause_start::
_pause:
;demo.c:244: uint8_t i,j,k = 0;
;demo.c:245: for (i = 0; i < 255; i++) {	
	ld	bc,#0x0000
00104$:
	ld	a,b
	sub	a,#0xFF
	ret	NC
;demo.c:246: for (j = 0; j < 255; j++) {
	ld	e,c
	ld	d,#0xFF
00103$:
;demo.c:247: k++;
	inc	e
	dec	d
;demo.c:246: for (j = 0; j < 255; j++) {
	xor	a,a
	or	a,d
	jr	NZ,00103$
;demo.c:245: for (i = 0; i < 255; i++) {	
	ld	c,e
	inc	b
	jr	00104$
_pause_end::
;demo.c:253: uint8_t raw_load(char *file_name, int size, char* buffer, int debugprint) {
;	---------------------------------
; Function raw_load
; ---------------------------------
_raw_load_start::
_raw_load:
	push	ix
	ld	ix,#0
	add	ix,sp
	ld	hl,#-46
	add	hl,sp
	ld	sp,hl
;demo.c:258: if(debugprint == 1) {
	ld	a,10 (ix)
	sub	a,#0x01
	jr	NZ,00120$
	ld	a,11 (ix)
	or	a,a
	jr	Z,00121$
00120$:
	jr	00102$
00121$:
;demo.c:259: puts("loading rawfile: ");
	ld	hl,#__str_4
	push	hl
	call	_puts
	pop	af
;demo.c:260: puts(file_name);
	ld	l,4 (ix)
	ld	h,5 (ix)
	push	hl
	call	_puts
	pop	af
;demo.c:261: puts("\r\n");
	ld	hl,#__str_5
	push	hl
	call	_puts
	pop	af
00102$:
;demo.c:264: memset((uint8_t *) &f, 0, sizeof(fcb));
	ld	hl,#0x0000
	add	hl,sp
	ld	c,l
	ld	b,h
	ld	hl,#0x002E
	push	hl
	ld	a,#0x00
	push	af
	inc	sp
	push	bc
	call	_memset
	pop	af
	pop	af
	inc	sp
;demo.c:265: scratch_clear();
	call	_scratch_clear
;demo.c:267: f.record_size = 128;
	ld	hl,#0x0000
	add	hl,sp
	ld	c,l
	ld	b,h
	ld	hl,#0x000F
	add	hl,bc
	ex	de,hl
	ld	a,#0x80
	ld	(de),a
;demo.c:268: f.drive = 0;
	ld	a,#0x00
	ld	(bc),a
;demo.c:270: memcpy(f.name, file_name, 11);
	ld	e,4 (ix)
	ld	d,5 (ix)
	inc	bc
	ld	hl,#0x000B
	push	hl
	push	de
	push	bc
	call	_memcpy
	pop	af
	pop	af
	pop	af
;demo.c:272: if (open(&f) != 0) return 0;
	ld	hl,#0x0000
	add	hl,sp
	push	hl
	call	_open
	pop	af
	xor	a,a
	or	a,l
	jr	Z,00119$
	ld	l,#0x00
	jp	00112$
;demo.c:274: while(total < size) {
00119$:
	ld	bc,#0x0000
00109$:
	ld	a,c
	sub	a,6 (ix)
	ld	a,b
	sbc	a,7 (ix)
	jp	P,00111$
;demo.c:275: if (block_set_data_ptr(scratch) != 0) return 0;
	push	bc
	ld	hl,#_scratch
	push	hl
	call	_block_set_data_ptr
	pop	af
	ld	e,l
	pop	bc
	xor	a,a
	or	a,e
	jr	Z,00106$
	ld	l,#0x00
	jr	00112$
00106$:
;demo.c:276: if (block_read(&f) != 0) return 0;
	ld	hl,#0x0000
	add	hl,sp
	push	bc
	push	hl
	call	_block_read
	pop	af
	ld	e,l
	pop	bc
	xor	a,a
	or	a,e
	jr	Z,00108$
	ld	l,#0x00
	jr	00112$
00108$:
;demo.c:278: memcpy(buffer+total,scratch,incr);
	ld	a,8 (ix)
	add	a,c
	ld	e,a
	ld	a,9 (ix)
	adc	a,b
	ld	d,a
	push	bc
	ld	hl,#0x0080
	push	hl
	ld	hl,#_scratch
	push	hl
	push	de
	call	_memcpy
	pop	af
	pop	af
	pop	af
	pop	bc
;demo.c:280: total+=incr;
	ld	hl,#0x0080
	add	hl,bc
	ld	c,l
	ld	b,h
	jp	00109$
00111$:
;demo.c:283: close(&f);
	ld	hl,#0x0000
	add	hl,sp
	push	hl
	call	_close
	pop	af
;demo.c:285: return 1;
	ld	l,#0x01
00112$:
	ld	sp,ix
	pop	ix
	ret
_raw_load_end::
__str_4:
	.ascii "loading rawfile: "
	.db 0x00
__str_5:
	.db 0x0D
	.db 0x0A
	.db 0x00
;demo.c:288: void pck_load(char *file_name, int size, uint16_t address, int vram_offset, int debugprint) {
;	---------------------------------
; Function pck_load
; ---------------------------------
_pck_load_start::
_pck_load:
	push	ix
	ld	ix,#0
	add	ix,sp
;demo.c:289: if(debugprint == 1) {
	ld	a,12 (ix)
	sub	a,#0x01
	jr	NZ,00106$
	ld	a,13 (ix)
	or	a,a
	jr	Z,00107$
00106$:
	jr	00102$
00107$:
;demo.c:290: puts("loading pckfile: ");
	ld	hl,#__str_6
	push	hl
	call	_puts
	pop	af
;demo.c:291: puts(file_name);
	ld	l,4 (ix)
	ld	h,5 (ix)
	push	hl
	call	_puts
	pop	af
;demo.c:292: puts("\r\n");
	ld	hl,#__str_7
	push	hl
	call	_puts
	pop	af
00102$:
;demo.c:294: memset((uint8_t *) &packbuffer, 0, size);
	ld	c,6 (ix)
	ld	b,7 (ix)
	push	bc
	push	bc
	ld	a,#0x00
	push	af
	inc	sp
	ld	hl,#_packbuffer
	push	hl
	call	_memset
	pop	af
	pop	af
	inc	sp
	pop	bc
;demo.c:295: raw_load(file_name, size, packbuffer,0);
	ld	hl,#0x0000
	push	hl
	ld	hl,#_packbuffer
	push	hl
	push	bc
	ld	l,4 (ix)
	ld	h,5 (ix)
	push	hl
	call	_raw_load
	pop	af
	pop	af
	pop	af
	pop	af
;demo.c:296: bitbuster(packbuffer,address,vram_offset);
	ld	a,10 (ix)
	push	af
	inc	sp
	ld	l,8 (ix)
	ld	h,9 (ix)
	push	hl
	ld	hl,#_packbuffer
	push	hl
	call	_bitbuster
	pop	af
	pop	af
	inc	sp
	pop	ix
	ret
_pck_load_end::
__str_6:
	.ascii "loading pckfile: "
	.db 0x00
__str_7:
	.db 0x0D
	.db 0x0A
	.db 0x00
;demo.c:299: void fadein() {
;	---------------------------------
; Function fadein
; ---------------------------------
_fadein_start::
_fadein:
	push	ix
	ld	ix,#0
	add	ix,sp
	push	af
;demo.c:302: if (tick < 4) return;
	ld	a,(#_tick+0)
	sub	a,#0x04
	ld	a,(#_tick+1)
	sbc	a,#0x00
	jp	P,00102$
	jp	00113$
00102$:
;demo.c:304: tick = 0;
	ld	hl,#_tick + 0
	ld	(hl), #0x00
	ld	hl,#_tick + 1
	ld	(hl), #0x00
;demo.c:306: for(i = 0; i < 32; i+=2) {
	ld	c,#0x00
00109$:
	ld	a,c
	sub	a,#0x20
	jp	NC,00112$
;demo.c:307: uint8_t r = scratch[i] >> 4;
	ld	a,#<_scratch
	add	a,c
	ld	e,a
	ld	a,#>_scratch
	adc	a,#0x00
	ld	d,a
	ld	a,(de)
	ld	b,a
	ld	e,b
	srl	e
	srl	e
	srl	e
	srl	e
;demo.c:308: uint8_t b = scratch[i] & 0xf;
	ld	a,b
	and	a,#0x0F
	ld	-1 (ix),a
;demo.c:309: uint8_t g = scratch[i+1];
	ld	d,c
	inc	d
	ld	a,#<_scratch
	add	a,d
	ld	l,a
	ld	a,#>_scratch
	adc	a,#0x00
	ld	h,a
	ld	d,(hl)
	ld	-2 (ix),d
;demo.c:311: if (r < (cur_palette[i] >> 4)) r++;
	ld	a,#<_cur_palette
	add	a,c
	ld	l,a
	ld	a,#>_cur_palette
	adc	a,#0x00
	ld	h,a
	ld	d,(hl)
	srl	d
	srl	d
	srl	d
	srl	d
	ld	a,e
	sub	a,d
	jr	NC,00104$
	inc	e
00104$:
;demo.c:312: if (b < (cur_palette[i] & 0xf)) b++;
	ld	a,#<_cur_palette
	add	a,c
	ld	l,a
	ld	a,#>_cur_palette
	adc	a,#0x00
	ld	h,a
	ld	a,(hl)
	and	a,#0x0F
	ld	b,a
	ld	a,-1 (ix)
	sub	a,b
	jr	NC,00106$
	inc	-1 (ix)
00106$:
;demo.c:314: scratch[i] = (r << 4) | b;
	ld	a,#<_scratch
	add	a,c
	ld	b,a
	ld	a,#>_scratch
	adc	a,#0x00
	ld	d,a
	ld	a,e
	rlca
	rlca
	rlca
	rlca
	and	a,#0xF0
	or	a,-1 (ix)
	ld	l,b
	ld	h,d
	ld	(hl),a
;demo.c:315: if (g < cur_palette[i+1]) scratch[i+1]++;
	ld	b,c
	inc	b
	ld	a,#<_cur_palette
	add	a,b
	ld	e,a
	ld	a,#>_cur_palette
	adc	a,#0x00
	ld	d,a
	ld	a,(de)
	ld	e,a
	ld	a,-2 (ix)
	sub	a,e
	jr	NC,00111$
	ld	a,#<_scratch
	add	a,b
	ld	b,a
	ld	a,#>_scratch
	adc	a,#0x00
	ld	e,a
	ld	l,b
	ld	h,a
	ld	a,(hl)
	inc	a
	ld	l,b
	ld	h,e
	ld	(hl),a
00111$:
;demo.c:306: for(i = 0; i < 32; i+=2) {
	inc	c
	inc	c
	jp	00109$
00112$:
;demo.c:319: vdp_load_palette(scratch);
	ld	hl,#_scratch
	push	hl
	call	_vdp_load_palette
	pop	af
00113$:
	ld	sp,ix
	pop	ix
	ret
_fadein_end::
;demo.c:331: void do_ymmm() {
;	---------------------------------
; Function do_ymmm
; ---------------------------------
_do_ymmm_start::
_do_ymmm:
	push	ix
	ld	ix,#0
	add	ix,sp
	push	af
;demo.c:335: if (tick > 32) { tick = 0; flipper++;}
	ld	a,#0x20
	ld	iy,#_tick
	sub	a,0 (iy)
	ld	a,#0x00
	ld	iy,#_tick
	sbc	a,1 (iy)
	jp	P,00102$
	ld	hl,#_tick + 0
	ld	(hl), #0x00
	ld	hl,#_tick + 1
	ld	(hl), #0x00
	ld	iy,#_flipper
	inc	0 (iy)
	jr	NZ,00115$
	ld	iy,#_flipper
	inc	1 (iy)
00115$:
00102$:
;demo.c:336: if (flipper > 10) { flipper = 0;}
	ld	a,#0x0A
	ld	iy,#_flipper
	sub	a,0 (iy)
	ld	a,#0x00
	ld	iy,#_flipper
	sbc	a,1 (iy)
	jp	P,00104$
	ld	hl,#_flipper + 0
	ld	(hl), #0x00
	ld	hl,#_flipper + 1
	ld	(hl), #0x00
00104$:
;demo.c:338: ymmmf++;
	ld	iy,#_ymmmf
	inc	0 (iy)
	jr	NZ,00116$
	ld	iy,#_ymmmf
	inc	1 (iy)
00116$:
;demo.c:339: for (yofff = 0; yofff<212-step;yofff+=step) {
	ld	hl,#_yofff + 0
	ld	(hl), #0x00
00105$:
	ld	hl,#_yofff + 0
	ld	c,(hl)
	ld	b,#0x00
	ld	a,c
	sub	a,#0xD2
	ld	a,b
	sbc	a,#0x00
	jp	P,00109$
;demo.c:340: xo = (sintabx[(yofff+ymmmf) & 255]);
	ld	hl,#_ymmmf
	ld	a,c
	add	a,(hl)
	ld	e,a
	ld	a,b
	inc	hl
	adc	a,(hl)
	ld	d,#0x00
	sla	e
	rl	d
	ld	hl,#_sintabx
	add	hl,de
	ld	e,(hl)
	inc	hl
	ld	d,(hl)
	ld	-2 (ix),e
	ld	-1 (ix),d
;demo.c:343: cmd.source_x = 0;
	ld	hl,#_cmd
	ld	(hl),#0x00
	inc	hl
	ld	(hl),#0x00
;demo.c:344: cmd.source_y = 0+yofff;
	ld	de,#_cmd + 2
	ex	de,hl
	ld	(hl),c
	inc	hl
	ld	(hl),b
;demo.c:345: cmd.dest_x = xo;
	ld	de,#_cmd + 4
	ex	de,hl
	ld	a,-2 (ix)
	ld	(hl),a
	inc	hl
	ld	a,-1 (ix)
	ld	(hl),a
;demo.c:346: cmd.dest_y = 3+yofff;
	ld	de,#_cmd + 6
	inc	bc
	inc	bc
	inc	bc
	ld	l,e
	ld	h,d
	ld	(hl),c
	inc	hl
	ld	(hl),b
;demo.c:347: cmd.size_x = 256;
	ld	hl, #_cmd + 8
	ld	(hl),#0x00
	inc	hl
	ld	(hl),#0x01
;demo.c:348: cmd.size_y = 1;
	ld	hl, #_cmd + 10
	ld	(hl),#0x01
	inc	hl
	ld	(hl),#0x00
;demo.c:349: cmd.data = 0;
;demo.c:350: cmd.argument = 0;
	ld	a,#0x00
	ld	(#_cmd + 12),a
	ld	(#_cmd + 13),a
;demo.c:351: cmd.command = 0xD0;
	ld	a,#0xD0
	ld	(#_cmd + 14),a
;demo.c:354: vdp_copier(&cmd);
	ld	hl,#_cmd
	push	hl
	call	_vdp_copier
	pop	af
;demo.c:339: for (yofff = 0; yofff<212-step;yofff+=step) {
	ld	hl,#_yofff + 0
	ld	c,(hl)
	ld	hl,#_yofff
	ld	a,c
	add	a,#0x02
	ld	(hl),a
	jp	00105$
00109$:
	ld	sp,ix
	pop	ix
	ret
_do_ymmm_end::
;demo.c:371: void do_blocks() {
;	---------------------------------
; Function do_blocks
; ---------------------------------
_do_blocks_start::
_do_blocks:
	push	ix
	ld	ix,#0
	add	ix,sp
	ld	hl,#-6
	add	hl,sp
	ld	sp,hl
;demo.c:373: int ys = 0;
	ld	-4 (ix),#0x00
	ld	-3 (ix),#0x00
;demo.c:374: int ye = 0;
	ld	-6 (ix),#0x00
	ld	-5 (ix),#0x00
;demo.c:376: vdp_register(VDP_VOFFSET,0);
	ld	hl,#0x0017
	push	hl
	call	_vdp_register
	pop	af
;demo.c:378: if (block_init == 0) {
	xor	a,a
	ld	iy,#_block_init
	or	a,0 (iy)
	jp	NZ,00108$
;demo.c:380: vdp_set_screen5();
	call	_vdp_set_screen5
;demo.c:382: vdp_register(2, 0x5F);
	ld	hl,#0x5F02
	push	hl
	call	_vdp_register
	pop	af
;demo.c:384: for(i=0;i<16;i++) btab[i] = i*16;
	ld	-2 (ix),#0x00
	ld	-1 (ix),#0x00
00110$:
	ld	a,-2 (ix)
	sub	a,#0x10
	ld	a,-1 (ix)
	sbc	a,#0x00
	jp	P,00113$
	ld	c,-2 (ix)
	ld	b,-1 (ix)
	sla	c
	rl	b
	ld	hl,#_btab
	add	hl,bc
	ld	c,l
	ld	b,h
	ld	e,-2 (ix)
	ld	d,-1 (ix)
	sla	e
	rl	d
	sla	e
	rl	d
	sla	e
	rl	d
	sla	e
	rl	d
	ld	l,c
	ld	h,b
	ld	(hl),e
	inc	hl
	ld	(hl),d
	inc	-2 (ix)
	jr	NZ,00139$
	inc	-1 (ix)
00139$:
	jr	00110$
00113$:
;demo.c:385: vdp_load_palette(block_palette);
	ld	hl,#_block_palette
	push	hl
	call	_vdp_load_palette
	pop	af
;demo.c:387: block_init = 1;
	ld	hl,#_block_init + 0
	ld	(hl), #0x01
	jp	00122$
00108$:
;demo.c:391: if (flof == 0) { ys = 0; ye = 8; }
	ld	a,(#_flof+0)
	ld	iy,#_flof
	or	a,1 (iy)
	jr	NZ,00102$
	ld	-4 (ix),#0x00
	ld	-3 (ix),#0x00
	ld	-6 (ix),#0x08
	ld	-5 (ix),#0x00
00102$:
;demo.c:392: if (flof == 1) { ys = 8; ye = 16; }
	ld	a,(#_flof+0)
	sub	a,#0x01
	jr	NZ,00140$
	ld	a,(#_flof+1)
	or	a,a
	jr	Z,00141$
00140$:
	jr	00104$
00141$:
	ld	-4 (ix),#0x08
	ld	-3 (ix),#0x00
	ld	-6 (ix),#0x10
	ld	-5 (ix),#0x00
00104$:
;demo.c:394: for(bty=3;bty<11;bty++) {
	ld	iy,#_bty
	ld	0 (iy),#0x03
	ld	iy,#_bty
	ld	1 (iy),#0x00
00118$:
	ld	a,(#_bty+0)
	sub	a,#0x0B
	ld	a,(#_bty+1)
	sbc	a,#0x00
	jp	P,00121$
;demo.c:395: for(btx=ys;btx<ye;btx++) {
	ld	a,-4 (ix)
	ld	iy,#_btx
	ld	0 (iy),a
	ld	a,-3 (ix)
	ld	iy,#_btx
	ld	1 (iy),a
00114$:
	ld	a,(#_btx+0)
	sub	a,-6 (ix)
	ld	a,(#_btx+1)
	sbc	a,-5 (ix)
	jp	P,00120$
;demo.c:396: bsx = (PLY_PSGReg8 & PLY_PSGReg9 | PLY_PSGReg10)>>1;
	ld	a,(#_PLY_PSGReg8+0)
	ld	iy,#_PLY_PSGReg9
	and	a,0 (iy)
	ld	hl,#_PLY_PSGReg10 + 0
	or	a,(hl)
	ld	c,a
	srl	c
	ld	hl,#_bsx + 0
	ld	(hl), c
	ld	hl,#_bsx + 1
	ld	(hl), #0x00
;demo.c:397: bsy = PLY_PSGReg10;
	ld	a,(#_PLY_PSGReg10+0)
	ld	hl,#_bsy + 0
	ld	(hl), a
	ld	hl,#_bsy + 1
	ld	(hl), #0x00
;demo.c:398: cmd.source_x = btab[bsx];
	ld	hl,#_bsx + 0
	ld	c,(hl)
	ld	hl,#_bsx + 1
	ld	b,(hl)
	sla	c
	rl	b
	ld	hl,#_btab
	add	hl,bc
	ld	c,(hl)
	inc	hl
	ld	b,(hl)
	ld	hl,#_cmd
	ld	(hl),c
	inc	hl
	ld	(hl),b
;demo.c:399: cmd.source_y = 768+btab[bsy];
	ld	bc,#_cmd + 2
	ld	hl,#_bsy + 0
	ld	e,(hl)
	ld	hl,#_bsy + 1
	ld	d,(hl)
	sla	e
	rl	d
	ld	hl,#_btab
	add	hl,de
	ld	e,(hl)
	inc	hl
	ld	d,(hl)
	ld	hl,#0x0300
	add	hl,de
	ex	de,hl
	ld	l,c
	ld	h,b
	ld	(hl),e
	inc	hl
	ld	(hl),d
;demo.c:400: cmd.dest_x = btab[btx];
	ld	bc,#_cmd + 4
	ld	hl,#_btx + 0
	ld	e,(hl)
	ld	hl,#_btx + 1
	ld	d,(hl)
	sla	e
	rl	d
	ld	hl,#_btab
	add	hl,de
	ld	e,(hl)
	inc	hl
	ld	d,(hl)
	ld	l,c
	ld	h,b
	ld	(hl),e
	inc	hl
	ld	(hl),d
;demo.c:401: cmd.dest_y = 512+btab[bty];
	ld	bc,#_cmd + 6
	ld	hl,#_bty + 0
	ld	e,(hl)
	ld	hl,#_bty + 1
	ld	d,(hl)
	sla	e
	rl	d
	ld	hl,#_btab
	add	hl,de
	ld	e,(hl)
	inc	hl
	ld	d,(hl)
	ld	hl,#0x0200
	add	hl,de
	ex	de,hl
	ld	l,c
	ld	h,b
	ld	(hl),e
	inc	hl
	ld	(hl),d
;demo.c:402: cmd.size_x = 16;
	ld	hl, #_cmd + 8
	ld	(hl),#0x10
	inc	hl
	ld	(hl),#0x00
;demo.c:403: cmd.size_y = 16;
	ld	hl, #_cmd + 10
	ld	(hl),#0x10
	inc	hl
	ld	(hl),#0x00
;demo.c:404: cmd.data = 0;
;demo.c:405: cmd.argument = 0x00;
	ld	a,#0x00
	ld	(#_cmd + 12),a
	ld	(#_cmd + 13),a
;demo.c:406: cmd.command = 0xD0;
	ld	a,#0xD0
	ld	(#_cmd + 14),a
;demo.c:407: vdp_copier(&cmd);
	ld	hl,#_cmd
	push	hl
	call	_vdp_copier
	pop	af
;demo.c:395: for(btx=ys;btx<ye;btx++) {
	ld	iy,#_btx
	inc	0 (iy)
	jr	NZ,00150$
	ld	iy,#_btx
	inc	1 (iy)
00150$:
	jp	00114$
00120$:
;demo.c:394: for(bty=3;bty<11;bty++) {
	ld	iy,#_bty
	inc	0 (iy)
	jr	NZ,00151$
	ld	iy,#_bty
	inc	1 (iy)
00151$:
	jp	00118$
00121$:
;demo.c:411: flof++;
	ld	iy,#_flof
	inc	0 (iy)
	jr	NZ,00152$
	ld	iy,#_flof
	inc	1 (iy)
00152$:
;demo.c:412: if (flof == 2) flof = 0;
	ld	a,(#_flof+0)
	sub	a,#0x02
	jr	NZ,00153$
	ld	a,(#_flof+1)
	or	a,a
	jr	Z,00154$
00153$:
	jr	00122$
00154$:
	ld	hl,#_flof + 0
	ld	(hl), #0x00
	ld	hl,#_flof + 1
	ld	(hl), #0x00
00122$:
	ld	sp,ix
	pop	ix
	ret
_do_blocks_end::
;demo.c:420: void raster_effu() {
;	---------------------------------
; Function raster_effu
; ---------------------------------
_raster_effu_start::
_raster_effu:
;demo.c:421: vdp_register(VDP_VOFFSET,0);
	ld	hl,#0x0017
	push	hl
	call	_vdp_register
	pop	af
;demo.c:422: waitVB();
		halt 
;demo.c:424: vdp_register(1,0x40); // disable vblank
	ld	hl,#0x4001
	push	hl
	call	_vdp_register
;demo.c:426: for (linenum = 40; linenum < 212; linenum+=4) {
	ld	a,#0x28
	ld	(#_linenum + 0),a
	pop	af
	ld	iy,#_linenum
	ld	1 (iy),#0x00
00101$:
	ld	a,(#_linenum+0)
	sub	a,#0xD4
	ld	a,(#_linenum+1)
	sbc	a,#0x00
	jp	P,00104$
;demo.c:427: vdp_register(19,linenum); // interrupt on line
	ld	a,(#_linenum+0)
	push	af
	inc	sp
	ld	a,#0x13
	push	af
	inc	sp
	call	_vdp_register
	pop	af
;demo.c:428: vdp_register(0,0x16); // mode SC5, IE1 interrupts on
	ld	hl,#0x1600
	push	hl
	call	_vdp_register
	pop	af
;demo.c:430: waitVB();
		halt 
;demo.c:426: for (linenum = 40; linenum < 212; linenum+=4) {
	ld	hl,#_linenum
	ld	a,(hl)
	add	a,#0x04
	inc	hl
	dec	hl
	push	bc
	ld	c, a
	inc	hl
	ld	a, (hl)
	ld	b, a
	ld	a, c
	dec	hl
	ld	(hl), a
	ld	a, b
	pop	bc
	adc	a,#0x00
	inc	hl
	ld	(hl),a
	jr	00101$
00104$:
;demo.c:433: vdp_register(VDP_VOFFSET,0);
	ld	hl,#0x0017
	push	hl
	call	_vdp_register
	pop	af
;demo.c:447: vdp_register(0,0x6); // mode SC5, IE1 interrupts off
	ld	hl,#0x0600
	push	hl
	call	_vdp_register
	pop	af
;demo.c:448: vdp_register(1,0x60); // enable vblank
	ld	hl,#0x6001
	push	hl
	call	_vdp_register
	pop	af
	ret
_raster_effu_end::
;demo.c:479: void do_letter(char cc) {
;	---------------------------------
; Function do_letter
; ---------------------------------
_do_letter_start::
_do_letter:
	push	ix
	ld	ix,#0
	add	ix,sp
	push	af
;demo.c:480: int cidx = cc - 65;
	ld	c,4 (ix)
	ld	a,4 (ix)
	rla	
	sbc	a,a
	ld	b,a
	ld	a,c
	add	a,#0xBF
	ld	-2 (ix),a
	ld	a,b
	adc	a,#0xFF
	ld	-1 (ix),a
;demo.c:481: cmd.source_x = 127+font_x[cidx];
	ld	a,#<_font_x
	add	a,-2 (ix)
	ld	e,a
	ld	a,#>_font_x
	adc	a,-1 (ix)
	ld	d,a
	ld	a,(de)
	ld	e,a
	ld	d,#0x00
	ld	hl,#0x007F
	add	hl,de
	ex	de,hl
	ld	hl,#_cmd
	ld	(hl),e
	inc	hl
	ld	(hl),d
;demo.c:482: cmd.source_y = 512+font_y[cidx];
	ld	de,#_cmd + 2
	ld	a,#<_font_y
	add	a,-2 (ix)
	ld	c,a
	ld	a,#>_font_y
	adc	a,-1 (ix)
	ld	b,a
	ld	a,(bc)
	ld	c,a
	ld	b,#0x00
	ld	hl,#0x0200
	add	hl,bc
	ld	c,l
	ld	b,h
	ex	de,hl
	ld	(hl),c
	inc	hl
	ld	(hl),b
;demo.c:483: cmd.dest_x = lx;
	ld	bc,#_cmd + 4
	ld	hl,#_lx + 0
	ld	e,(hl)
	ld	d,#0x00
	ld	l,c
	ld	h,b
	ld	(hl),e
	inc	hl
	ld	(hl),d
;demo.c:484: cmd.dest_y = ly;
	ld	bc,#_cmd + 6
	ld	hl,#_ly + 0
	ld	e,(hl)
	ld	d,#0x00
	ld	l,c
	ld	h,b
	ld	(hl),e
	inc	hl
	ld	(hl),d
;demo.c:485: cmd.size_x = font_w[cidx];
	ld	bc,#_cmd + 8
	ld	a,#<_font_w
	add	a,-2 (ix)
	ld	e,a
	ld	a,#>_font_w
	adc	a,-1 (ix)
	ld	d,a
	ld	a,(de)
	ld	e,a
	ld	d,#0x00
	ld	l,c
	ld	h,b
	ld	(hl),e
	inc	hl
	ld	(hl),d
;demo.c:486: cmd.size_y = 8;
	ld	hl, #_cmd + 10
	ld	(hl),#0x08
	inc	hl
	ld	(hl),#0x00
;demo.c:487: cmd.argument = 0x00;
	ld	a,#0x00
	ld	(#_cmd + 13),a
;demo.c:488: cmd.command = 0x90; // logical vram to vram
	ld	a,#0x90
	ld	(#_cmd + 14),a
;demo.c:489: vdp_copier(&cmd);
	ld	hl,#_cmd
	push	hl
	call	_vdp_copier
	pop	af
;demo.c:490: lx+=font_w[cidx]-1;
	ld	a,#<_font_w
	add	a,-2 (ix)
	ld	c,a
	ld	a,#>_font_w
	adc	a,-1 (ix)
	ld	b,a
	ld	a,(bc)
	ld	c,a
	dec	c
	ld	hl,#_lx
	ld	a,(hl)
	add	a,c
	ld	(hl),a
	ld	sp,ix
	pop	ix
	ret
_do_letter_end::
_font_x:
	.db #0x01
	.db #0x09
	.db #0x11
	.db #0x19
	.db #0x21
	.db #0x29
	.db #0x31
	.db #0x39
	.db #0x41
	.db #0x46
	.db #0x4E
	.db #0x56
	.db #0x5E
	.db #0x01
	.db #0x0A
	.db #0x12
	.db #0x1A
	.db #0x23
	.db #0x2B
	.db #0x33
	.db #0x3C
	.db #0x44
	.db #0x4C
	.db #0x56
	.db #0x5E
	.db #0x67
	.db #0x00
	.db #0x00
	.db #0x00
	.db #0x00
	.db #0x00
	.db #0x00
	.db #0x01
	.db #0x09
	.db #0x11
	.db #0x18
	.db #0x20
	.db #0x28
	.db #0x2F
	.db #0x37
	.db #0x3F
	.db #0x45
	.db #0x4C
	.db #0x54
	.db #0x5A
	.db #0x64
	.db #0x01
	.db #0x09
	.db #0x11
	.db #0x19
	.db #0x21
	.db #0x29
	.db #0x30
	.db #0x38
	.db #0x40
	.db #0x4A
	.db #0x52
	.db #0x5A
	.db 0x00
	.db 0x00
	.db 0x00
	.db 0x00
	.db 0x00
	.db 0x00
_font_y:
	.db #0x1C
	.db #0x1C
	.db #0x1C
	.db #0x1C
	.db #0x1C
	.db #0x1C
	.db #0x1C
	.db #0x1C
	.db #0x1C
	.db #0x1C
	.db #0x1C
	.db #0x1C
	.db #0x1C
	.db #0x25
	.db #0x25
	.db #0x25
	.db #0x25
	.db #0x25
	.db #0x25
	.db #0x25
	.db #0x25
	.db #0x25
	.db #0x25
	.db #0x25
	.db #0x25
	.db #0x25
	.db #0x00
	.db #0x00
	.db #0x00
	.db #0x00
	.db #0x00
	.db #0x00
	.db #0x37
	.db #0x37
	.db #0x37
	.db #0x37
	.db #0x37
	.db #0x37
	.db #0x37
	.db #0x37
	.db #0x37
	.db #0x37
	.db #0x37
	.db #0x37
	.db #0x37
	.db #0x37
	.db #0x40
	.db #0x40
	.db #0x40
	.db #0x40
	.db #0x40
	.db #0x40
	.db #0x40
	.db #0x40
	.db #0x40
	.db #0x40
	.db #0x40
	.db #0x40
	.db 0x00
	.db 0x00
	.db 0x00
	.db 0x00
	.db 0x00
	.db 0x00
_font_w:
	.db #0x07
	.db #0x07
	.db #0x07
	.db #0x07
	.db #0x07
	.db #0x07
	.db #0x07
	.db #0x07
	.db #0x04
	.db #0x07
	.db #0x07
	.db #0x07
	.db #0x09
	.db #0x08
	.db #0x07
	.db #0x07
	.db #0x08
	.db #0x07
	.db #0x07
	.db #0x08
	.db #0x07
	.db #0x07
	.db #0x09
	.db #0x07
	.db #0x08
	.db #0x07
	.db #0x00
	.db #0x00
	.db #0x00
	.db #0x00
	.db #0x00
	.db #0x00
	.db #0x07
	.db #0x07
	.db #0x06
	.db #0x07
	.db #0x07
	.db #0x07
	.db #0x07
	.db #0x07
	.db #0x05
	.db #0x06
	.db #0x07
	.db #0x05
	.db #0x09
	.db #0x07
	.db #0x07
	.db #0x07
	.db #0x07
	.db #0x07
	.db #0x07
	.db #0x06
	.db #0x07
	.db #0x07
	.db #0x09
	.db #0x07
	.db #0x07
	.db #0x07
	.db 0x00
	.db 0x00
	.db 0x00
	.db 0x00
	.db 0x00
	.db 0x00
;demo.c:494: void do_letter_tall(char cc) {
;	---------------------------------
; Function do_letter_tall
; ---------------------------------
_do_letter_tall_start::
_do_letter_tall:
	push	ix
	ld	ix,#0
	add	ix,sp
	push	af
;demo.c:495: int cidx = cc - 65;
	ld	c,4 (ix)
	ld	a,4 (ix)
	rla	
	sbc	a,a
	ld	b,a
	ld	a,c
	add	a,#0xBF
	ld	-2 (ix),a
	ld	a,b
	adc	a,#0xFF
	ld	-1 (ix),a
;demo.c:496: cmd.source_x = 127+font_x[cidx];
	ld	a,#<_font_x
	add	a,-2 (ix)
	ld	e,a
	ld	a,#>_font_x
	adc	a,-1 (ix)
	ld	d,a
	ld	a,(de)
	ld	e,a
	ld	d,#0x00
	ld	hl,#0x007F
	add	hl,de
	ex	de,hl
	ld	hl,#_cmd
	ld	(hl),e
	inc	hl
	ld	(hl),d
;demo.c:497: cmd.source_y = 512+font_y[cidx]-1;
	ld	de,#_cmd + 2
	ld	a,#<_font_y
	add	a,-2 (ix)
	ld	c,a
	ld	a,#>_font_y
	adc	a,-1 (ix)
	ld	b,a
	ld	a,(bc)
	ld	c,a
	ld	b,#0x00
	ld	hl,#0x01FF
	add	hl,bc
	ld	c,l
	ld	b,h
	ex	de,hl
	ld	(hl),c
	inc	hl
	ld	(hl),b
;demo.c:498: cmd.dest_x = lx;
	ld	bc,#_cmd + 4
	ld	hl,#_lx + 0
	ld	e,(hl)
	ld	d,#0x00
	ld	l,c
	ld	h,b
	ld	(hl),e
	inc	hl
	ld	(hl),d
;demo.c:499: cmd.dest_y = ly;
	ld	bc,#_cmd + 6
	ld	hl,#_ly + 0
	ld	e,(hl)
	ld	d,#0x00
	ld	l,c
	ld	h,b
	ld	(hl),e
	inc	hl
	ld	(hl),d
;demo.c:500: cmd.size_x = font_w[cidx];
	ld	bc,#_cmd + 8
	ld	a,#<_font_w
	add	a,-2 (ix)
	ld	e,a
	ld	a,#>_font_w
	adc	a,-1 (ix)
	ld	d,a
	ld	a,(de)
	ld	e,a
	ld	d,#0x00
	ld	l,c
	ld	h,b
	ld	(hl),e
	inc	hl
	ld	(hl),d
;demo.c:501: cmd.size_y = 10;
	ld	hl, #_cmd + 10
	ld	(hl),#0x0A
	inc	hl
	ld	(hl),#0x00
;demo.c:502: cmd.argument = 0x00;
	ld	a,#0x00
	ld	(#_cmd + 13),a
;demo.c:503: cmd.command = 0x90; // logical vram to vram
	ld	a,#0x90
	ld	(#_cmd + 14),a
;demo.c:504: vdp_copier(&cmd);
	ld	hl,#_cmd
	push	hl
	call	_vdp_copier
	pop	af
;demo.c:505: lx+=font_w[cidx]-1;
	ld	a,#<_font_w
	add	a,-2 (ix)
	ld	c,a
	ld	a,#>_font_w
	adc	a,-1 (ix)
	ld	b,a
	ld	a,(bc)
	ld	c,a
	dec	c
	ld	hl,#_lx
	ld	a,(hl)
	add	a,c
	ld	(hl),a
	ld	sp,ix
	pop	ix
	ret
_do_letter_tall_end::
;demo.c:508: void drawstr(char* str, uint8_t x, uint8_t y) {
;	---------------------------------
; Function drawstr
; ---------------------------------
_drawstr_start::
_drawstr:
	push	ix
	ld	ix,#0
	add	ix,sp
;demo.c:509: char* c = str;
	ld	c,4 (ix)
	ld	b,5 (ix)
;demo.c:510: lx = x;
	ld	e,6 (ix)
	ld	hl,#_lx + 0
	ld	(hl), e
;demo.c:511: ly = y;
	ld	a,7 (ix)
	ld	hl,#_ly + 0
	ld	(hl), a
;demo.c:512: while (*c) {
00107$:
	ld	a,(bc)
	ld	d,a
	or	a,a
	jr	Z,00110$
;demo.c:513: char ltr = *c++; 
	inc	bc
;demo.c:514: if (ltr == ' ') lx+=4;
	ld	a,d
	sub	a,#0x20
	jr	NZ,00105$
	ld	iy,#_lx
	inc	0 (iy)
	ld	iy,#_lx
	inc	0 (iy)
	ld	iy,#_lx
	inc	0 (iy)
	ld	iy,#_lx
	inc	0 (iy)
	jr	00107$
00105$:
;demo.c:515: else if (ltr == '_') { ly+=9; lx = x; }
	ld	a,d
	sub	a,#0x5F
	jr	NZ,00102$
	ld	hl,#_ly
	ld	a,(hl)
	add	a,#0x09
	ld	(hl),a
	ld	hl,#_lx + 0
	ld	(hl), e
	jr	00107$
00102$:
;demo.c:516: else do_letter(ltr);
	push	bc
	push	de
	push	de
	inc	sp
	call	_do_letter
	inc	sp
	pop	de
	pop	bc
	jr	00107$
00110$:
	pop	ix
	ret
_drawstr_end::
;demo.c:520: void drawsine(char* str, uint8_t x, uint8_t y) {
;	---------------------------------
; Function drawsine
; ---------------------------------
_drawsine_start::
_drawsine:
	push	ix
	ld	ix,#0
	add	ix,sp
	dec	sp
;demo.c:521: char* c = str;
	ld	c,4 (ix)
	ld	b,5 (ix)
;demo.c:522: lx = x;
	ld	a,6 (ix)
	ld	hl,#_lx + 0
	ld	(hl), a
;demo.c:524: while (*c) {
00104$:
	ld	a,(bc)
	ld	e,a
	or	a,a
	jp	Z,00107$
;demo.c:525: char ltr = *c++; 
	inc	bc
	ld	-1 (ix),e
;demo.c:526: ly = y+(sintabx[(lx+vbicount>>1) & 255]>>4);
	ld	hl,#_lx + 0
	ld	e,(hl)
	ld	d,#0x00
	ld	hl,#_vbicount
	ld	a,e
	add	a,(hl)
	ld	e,a
	ld	a,d
	inc	hl
	adc	a,(hl)
	ld	d,a
	sra	d
	rr	e
	ld	d,#0x00
	sla	e
	rl	d
	ld	hl,#_sintabx
	add	hl,de
	ld	e,(hl)
	inc	hl
	ld	d,(hl)
	srl	d
	rr	e
	srl	d
	rr	e
	srl	d
	rr	e
	srl	d
	rr	e
	ld	hl,#_ly
	ld	a,7 (ix)
	add	a,e
	ld	(hl),a
;demo.c:527: if (ltr == ' ') lx+=4;
	ld	a,-1 (ix)
	sub	a,#0x20
	jr	NZ,00102$
	ld	iy,#_lx
	inc	0 (iy)
	ld	iy,#_lx
	inc	0 (iy)
	ld	iy,#_lx
	inc	0 (iy)
	ld	iy,#_lx
	inc	0 (iy)
	jp	00104$
00102$:
;demo.c:528: else do_letter_tall(ltr);
	push	bc
	ld	a,-1 (ix)
	push	af
	inc	sp
	call	_do_letter_tall
	inc	sp
	pop	bc
	jp	00104$
00107$:
	ld	sp,ix
	pop	ix
	ret
_drawsine_end::
;demo.c:532: void font() {
;	---------------------------------
; Function font
; ---------------------------------
_font_start::
_font:
;demo.c:534: drawstr("DIGITAL SOUNDS SYSTEM__ IN THE HOUSE__  ON MSX__   AT REVISION__    OLDSKOOL_     DEMO_      COMPO",74,60);
	ld	hl,#0x3C4A
	push	hl
	ld	hl,#__str_8
	push	hl
	call	_drawstr
	pop	af
	pop	af
	ret
_font_end::
__str_8:
	.ascii "DIGITAL SOUNDS SYSTEM__ IN THE HOUSE__  ON MSX__   AT REVISI"
	.ascii "ON__    OLDSKOOL_     DEMO_      COMPO"
	.db 0x00
;demo.c:543: void twister() {
;	---------------------------------
; Function twister
; ---------------------------------
_twister_start::
_twister:
	push	ix
	ld	ix,#0
	add	ix,sp
	push	af
;demo.c:547: if (twinited == 0) {
	ld	a,(#_twinited+0)
	ld	iy,#_twinited
	or	a,1 (iy)
	jp	NZ,00102$
;demo.c:548: cmd.size_x = 256;
	ld	hl, #_cmd + 8
	ld	(hl),#0x00
	inc	hl
	ld	(hl),#0x01
;demo.c:549: cmd.size_y = 1;
	ld	hl, #_cmd + 10
	ld	(hl),#0x01
	inc	hl
	ld	(hl),#0x00
;demo.c:550: cmd.data = 0;
;demo.c:551: cmd.argument = 0x00; // from 70xY to left
	ld	a,#0x00
	ld	(#_cmd + 12),a
	ld	(#_cmd + 13),a
;demo.c:552: cmd.command = 0xd0; // vram to vram, y only
	ld	bc,#_cmd + 14
	ld	a,#0xD0
	ld	(bc),a
;demo.c:553: cmd.source_x = 0;
	ld	hl,#_cmd
	ld	(hl),#0x00
	inc	hl
	ld	(hl),#0x00
;demo.c:554: cmd.dest_x = 0;
	ld	hl, #_cmd + 4
	ld	(hl),#0x00
	inc	hl
	ld	(hl),#0x00
;demo.c:556: for (y = 0; y < 212; y+=1) {
	ld	bc,#0x0000
00103$:
	ld	a,c
	sub	a,#0xD4
	ld	a,b
	sbc	a,#0x00
	jp	P,00106$
;demo.c:557: waitVB();
		halt 
;demo.c:558: cmd.source_y = 0;
	ld	de,#_cmd + 2
	ex	de,hl
	ld	(hl),#0x00
	inc	hl
	ld	(hl),#0x00
;demo.c:559: cmd.dest_y = y;
	ld	de,#_cmd + 6
	ex	de,hl
	ld	(hl),c
	inc	hl
	ld	(hl),b
;demo.c:560: vdp_copier(&cmd);
	push	bc
	ld	hl,#_cmd
	push	hl
	call	_vdp_copier
	pop	af
	pop	bc
;demo.c:556: for (y = 0; y < 212; y+=1) {
	inc	bc
	jr	00103$
00106$:
;demo.c:564: twinited = 1;
	ld	hl,#_twinited + 0
	ld	(hl), #0x01
	ld	hl,#_twinited + 1
	ld	(hl), #0x00
;demo.c:565: vdp_load_palette(twister_palette);
	ld	hl,#_twister_palette
	push	hl
	call	_vdp_load_palette
	pop	af
;demo.c:566: font();
	call	_font
00102$:
;demo.c:569: cmd.size_x = 70;
	ld	hl, #_cmd + 8
	ld	(hl),#0x46
	inc	hl
	ld	(hl),#0x00
;demo.c:570: cmd.size_y = 2;
	ld	hl, #_cmd + 10
	ld	(hl),#0x02
	inc	hl
	ld	(hl),#0x00
;demo.c:571: cmd.data = 0;
	ld	a,#0x00
	ld	(#_cmd + 12),a
;demo.c:572: cmd.argument = 0x04; // from 70xY to left
	ld	a,#0x04
	ld	(#_cmd + 13),a
;demo.c:573: cmd.command = 0xe0; // vram to vram, y only
	ld	bc,#_cmd + 14
	ld	a,#0xE0
	ld	(bc),a
;demo.c:574: cmd.source_x = 70;
	ld	hl,#_cmd
	ld	(hl),#0x46
	inc	hl
	ld	(hl),#0x00
;demo.c:575: cmd.dest_x = 70;
	ld	hl, #_cmd + 4
	ld	(hl),#0x46
	inc	hl
	ld	(hl),#0x00
;demo.c:577: for (y = 0; y < 212; y+=2) {
	ld	-2 (ix),#0x00
	ld	-1 (ix),#0x00
00107$:
	ld	a,-2 (ix)
	sub	a,#0xD4
	ld	a,-1 (ix)
	sbc	a,#0x00
	jp	P,00110$
;demo.c:578: cmd.source_y = ((sintab[(ff+(y>>1)) & 255])>>1)+512+64;
	ld	de,#_cmd + 2
	ld	c,-2 (ix)
	ld	b,-1 (ix)
	sra	b
	rr	c
	ld	a,(#_ff+0)
	add	a,c
	ld	c,a
	ld	a,(#_ff+1)
	adc	a,b
	ld	b,#0x00
	ld	hl,#_sintab
	add	hl,bc
	ld	a,(hl)
	ld	c,a
	sra	c
	ld	a,c
	rla	
	sbc	a,a
	ld	b,a
	ld	hl,#0x0240
	add	hl,bc
	ld	c,l
	ld	b,h
	ld	l,e
	ld	h,d
	ld	(hl),c
	inc	hl
	ld	(hl),b
;demo.c:579: cmd.dest_y = y;
	ld	hl, #_cmd + 6
	ld	a,-2 (ix)
	ld	(hl),a
	inc	hl
	ld	a,-1 (ix)
	ld	(hl),a
;demo.c:580: vdp_copier(&cmd);
	ld	hl,#_cmd
	push	hl
	call	_vdp_copier
	pop	af
;demo.c:577: for (y = 0; y < 212; y+=2) {
	ld	a,-2 (ix)
	add	a,#0x02
	ld	-2 (ix),a
	ld	a,-1 (ix)
	adc	a,#0x00
	ld	-1 (ix),a
	jp	00107$
00110$:
;demo.c:584: msx2_palette(4,ff>>2,ff>>3,ff>>2);
	ld	hl,#_ff + 0
	ld	c,(hl)
	ld	hl,#_ff + 1
	ld	b,(hl)
	sra	b
	rr	c
	sra	b
	rr	c
	ld	hl,#_ff + 0
	ld	e,(hl)
	ld	hl,#_ff + 1
	ld	d,(hl)
	sra	d
	rr	e
	sra	d
	rr	e
	sra	d
	rr	e
	ld	b,e
	ld	a,c
	push	af
	inc	sp
	push	bc
	inc	sp
	ld	b,c
	ld	c,#0x04
	push	bc
	call	_msx2_palette
	pop	af
	pop	af
;demo.c:586: ff+=4;
	ld	hl,#_ff
	ld	a,(hl)
	add	a,#0x04
	inc	hl
	dec	hl
	push	bc
	ld	c, a
	inc	hl
	ld	a, (hl)
	ld	b, a
	ld	a, c
	dec	hl
	ld	(hl), a
	ld	a, b
	pop	bc
	adc	a,#0x00
	inc	hl
	ld	(hl),a
	ld	sp,ix
	pop	ix
	ret
_twister_end::
;demo.c:596: void bulbs() {
;	---------------------------------
; Function bulbs
; ---------------------------------
_bulbs_start::
_bulbs:
	push	ix
	ld	ix,#0
	add	ix,sp
	ld	hl,#-6
	add	hl,sp
	ld	sp,hl
;demo.c:599: int sy = 16;
	ld	bc,#0x0010
;demo.c:601: ender+=enderdir;
	ld	hl,#_enderdir
	push	de
	ld	iy,#_ender
	push	iy
	pop	de
	ld	a,(de)
	add	a,(hl)
	inc	de
	dec	de
	push	bc
	ld	c, a
	inc	de
	ld	a, (de)
	ld	b, a
	ld	a, c
	dec	de
	ld	(de), a
	ld	a, b
	pop	bc
	inc	hl
	adc	a,(hl)
	inc	de
	ld	(de),a
	pop	de
;demo.c:602: if (ender < 2) enderdir = -enderdir;
	ld	a,(#_ender+0)
	sub	a,#0x02
	ld	a,(#_ender+1)
	sbc	a,#0x00
	jp	P,00102$
	xor	a,a
	ld	iy,#_enderdir
	ld	a,#0x00
	sbc	a,0 (iy)
	ld	iy,#_enderdir
	ld	0 (iy),a
	ld	iy,#_enderdir
	ld	a,#0x00
	sbc	a,1 (iy)
	ld	iy,#_enderdir
	ld	1 (iy),a
00102$:
;demo.c:603: if (ender >= 212) enderdir = -enderdir;
	ld	a,(#_ender+0)
	sub	a,#0xD4
	ld	a,(#_ender+1)
	sbc	a,#0x00
	jp	M,00104$
	xor	a,a
	ld	iy,#_enderdir
	ld	a,#0x00
	sbc	a,0 (iy)
	ld	iy,#_enderdir
	ld	0 (iy),a
	ld	iy,#_enderdir
	ld	a,#0x00
	sbc	a,1 (iy)
	ld	iy,#_enderdir
	ld	1 (iy),a
00104$:
;demo.c:605: enderend = ender + 92;
	ld	a,(#_ender+0)
	add	a,#0x5C
	ld	-2 (ix),a
	ld	a,(#_ender+1)
	adc	a,#0x00
	ld	-1 (ix),a
;demo.c:607: if (enderend > 212) enderend = 212;
	ld	a,#0xD4
	sub	a,-2 (ix)
	ld	a,#0x00
	sbc	a,-1 (ix)
	jp	P,00106$
	ld	-2 (ix),#0xD4
	ld	-1 (ix),#0x00
00106$:
;demo.c:608: if (enderend > 212-16) sy = 16-(212-enderend);
	ld	a,#0xC4
	sub	a,-2 (ix)
	ld	a,#0x00
	sbc	a,-1 (ix)
	jp	P,00108$
	ld	a,#0xD4
	sub	a,-2 (ix)
	ld	e,a
	ld	a,#0x00
	sbc	a,-1 (ix)
	ld	d,a
	ld	a,#0x10
	sub	a,e
	ld	c,a
	ld	a,#0x00
	sbc	a,d
	ld	b,a
00108$:
;demo.c:610: if(bulbflipper == 1) {
	ld	a,(#_bulbflipper+0)
	sub	a,#0x01
	jr	NZ,00133$
	ld	a,(#_bulbflipper+1)
	or	a,a
	jr	Z,00134$
00133$:
	jp	00110$
00134$:
;demo.c:611: cmd.size_x = 72;
	ld	de,#_cmd + 8
	ex	de,hl
	ld	(hl),#0x48
	inc	hl
	ld	(hl),#0x00
;demo.c:612: cmd.size_y = sy;
	ld	de,#_cmd + 10
	ex	de,hl
	ld	(hl),c
	inc	hl
	ld	(hl),b
;demo.c:613: cmd.data = 0;
	ld	de,#_cmd + 12
	ld	a,#0x00
	ld	(de),a
;demo.c:614: cmd.argument = 0x04; // from 72xY to left
	ld	de,#_cmd + 13
	ld	a,#0x04
	ld	(de),a
;demo.c:615: cmd.command = 0xe0; // vram to vram, y only
	ld	de,#_cmd + 14
	ld	a,#0xE0
	ld	(de),a
;demo.c:616: cmd.source_x = 72;
	ld	hl,#_cmd
	ld	(hl),#0x48
	inc	hl
	ld	(hl),#0x00
;demo.c:617: cmd.dest_x = 72;
	ld	de,#_cmd + 4
	ld	l,e
	ld	h,d
	ld	(hl),#0x48
	inc	hl
	ld	(hl),#0x00
;demo.c:619: for (y = ender; y < enderend; y+=16) {
	ld	bc,(_ender)
	ld	-4 (ix),c
	ld	-3 (ix),b
00112$:
	ld	a,-4 (ix)
	sub	a,-2 (ix)
	ld	a,-3 (ix)
	sbc	a,-1 (ix)
	jp	P,00115$
;demo.c:620: cmd.source_y = ((sintab[(ff1+(y)) & 255])>>1)+320;
	ld	bc,#_cmd + 2
	ld	a,(#_ff1+0)
	add	a,-4 (ix)
	ld	e,a
	ld	a,(#_ff1+1)
	adc	a,-3 (ix)
	ld	d,#0x00
	ld	hl,#_sintab
	add	hl,de
	ld	e,(hl)
	sra	e
	ld	a,e
	rla	
	sbc	a,a
	ld	d,a
	ld	hl,#0x0140
	add	hl,de
	ex	de,hl
	ld	l,c
	ld	h,b
	ld	(hl),e
	inc	hl
	ld	(hl),d
;demo.c:621: cmd.dest_y = y;
	ld	de,#_cmd + 6
	ex	de,hl
	ld	a,-4 (ix)
	ld	(hl),a
	inc	hl
	ld	a,-3 (ix)
	ld	(hl),a
;demo.c:622: vdp_copier(&cmd);
	ld	hl,#_cmd
	push	hl
	call	_vdp_copier
	pop	af
;demo.c:619: for (y = ender; y < enderend; y+=16) {
	ld	a,-4 (ix)
	add	a,#0x10
	ld	-4 (ix),a
	ld	a,-3 (ix)
	adc	a,#0x00
	ld	-3 (ix),a
	jp	00112$
00115$:
;demo.c:624: ff1+=4;
	ld	hl,#_ff1
	ld	a,(hl)
	add	a,#0x04
	inc	hl
	dec	hl
	push	bc
	ld	c, a
	inc	hl
	ld	a, (hl)
	ld	b, a
	ld	a, c
	dec	hl
	ld	(hl), a
	ld	a, b
	pop	bc
	adc	a,#0x00
	inc	hl
	ld	(hl),a
	jp	00111$
00110$:
;demo.c:628: cmd.size_x = 72;
	ld	de,#_cmd + 8
	ex	de,hl
	ld	(hl),#0x48
	inc	hl
	ld	(hl),#0x00
;demo.c:629: cmd.size_y = sy;
	ld	de,#_cmd + 10
	ld	l,e
	ld	h,d
	ld	(hl),c
	inc	hl
	ld	(hl),b
;demo.c:630: cmd.data = 0;
;demo.c:631: cmd.argument = 0x00; // from 182xY to right
	ld	a,#0x00
	ld	(#_cmd + 12),a
	ld	(#_cmd + 13),a
;demo.c:632: cmd.command = 0xe0; // vram to vram, y only
	ld	bc,#_cmd + 14
	ld	a,#0xE0
	ld	(bc),a
;demo.c:633: cmd.source_x = 182;
	ld	hl,#_cmd
	ld	(hl),#0xB6
	inc	hl
	ld	(hl),#0x00
;demo.c:634: cmd.dest_x = 182;
	ld	hl, #_cmd + 4
	ld	(hl),#0xB6
	inc	hl
	ld	(hl),#0x00
;demo.c:636: for (y = ender; y < enderend; y+=16) {
	ld	bc,(_ender)
00116$:
	ld	a,c
	sub	a,-2 (ix)
	ld	a,b
	sbc	a,-1 (ix)
	jp	P,00119$
;demo.c:637: cmd.source_y = ((sintab[(ff2+(y)) & 255])>>1)+320;
	ld	hl,#_cmd + 2
	ld	-6 (ix),l
	ld	-5 (ix),h
	ld	a,(#_ff2+0)
	add	a,c
	ld	e,a
	ld	a,(#_ff2+1)
	adc	a,b
	ld	d,#0x00
	ld	hl,#_sintab
	add	hl,de
	ld	e,(hl)
	sra	e
	ld	a,e
	rla	
	sbc	a,a
	ld	d,a
	ld	hl,#0x0140
	add	hl,de
	ex	de,hl
	ld	l,-6 (ix)
	ld	h,-5 (ix)
	ld	(hl),e
	inc	hl
	ld	(hl),d
;demo.c:638: cmd.dest_y = y;
	ld	de,#_cmd + 6
	ex	de,hl
	ld	(hl),c
	inc	hl
	ld	(hl),b
;demo.c:639: vdp_copier(&cmd);
	push	bc
	ld	hl,#_cmd
	push	hl
	call	_vdp_copier
	pop	af
	pop	bc
;demo.c:636: for (y = ender; y < enderend; y+=16) {
	ld	hl,#0x0010
	add	hl,bc
	ld	c,l
	ld	b,h
	jp	00116$
00119$:
;demo.c:641: ff2+=4;
	ld	hl,#_ff2
	ld	a,(hl)
	add	a,#0x04
	inc	hl
	dec	hl
	push	bc
	ld	c, a
	inc	hl
	ld	a, (hl)
	ld	b, a
	ld	a, c
	dec	hl
	ld	(hl), a
	ld	a, b
	pop	bc
	adc	a,#0x00
	inc	hl
	ld	(hl),a
00111$:
;demo.c:644: bulbflipper = -bulbflipper;
	xor	a,a
	ld	iy,#_bulbflipper
	ld	a,#0x00
	sbc	a,0 (iy)
	ld	hl,#_bulbflipper + 0
	ld	(hl), a
	ld	iy,#_bulbflipper
	ld	a,#0x00
	sbc	a,1 (iy)
	ld	hl,#_bulbflipper + 1
	ld	(hl), a
	ld	sp,ix
	pop	ix
	ret
_bulbs_end::
;demo.c:658: void animplay() {
;	---------------------------------
; Function animplay
; ---------------------------------
_animplay_start::
_animplay:
	push	ix
	ld	ix,#0
	add	ix,sp
	push	af
	dec	sp
;demo.c:663: if (anim_init == 0) {
	ld	a,(#_anim_init+0)
	ld	hl,#_anim_init + 1
	or	a,(hl)
	jp	NZ,00120$
;demo.c:665: scratch_clear();
	call	_scratch_clear
;demo.c:666: vdp_load_palette(scratch);
	ld	hl,#_scratch
	push	hl
	call	_vdp_load_palette
	pop	af
;demo.c:668: uninstall_isr();
	call	_uninstall_isr
;demo.c:669: PLY_Stop();
	call	_PLY_Stop
;demo.c:670: PLY_SendRegisters();
	call	_PLY_SendRegisters
;demo.c:672: pck_load("LF1     PCK",14089,0x0000,VRAM_0,0);
	ld	hl,#0x0000
	push	hl
	ld	l, #0x01
	push	hl
	ld	l, #0x00
	push	hl
	ld	hl,#0x3709
	push	hl
	ld	hl,#__str_9
	push	hl
	call	_pck_load
	ld	iy,#0x000A
	add	iy,sp
	ld	sp,iy
;demo.c:674: cmd.size_x = 256;
	ld	hl, #_cmd + 8
	ld	(hl),#0x00
	inc	hl
	ld	(hl),#0x01
;demo.c:675: cmd.size_y = 212;
	ld	hl, #_cmd + 10
	ld	(hl),#0xD4
	inc	hl
	ld	(hl),#0x00
;demo.c:676: cmd.data = 0;
;demo.c:677: cmd.argument = 0x00;
	ld	a,#0x00
	ld	(#_cmd + 12),a
	ld	(#_cmd + 13),a
;demo.c:678: cmd.command = 0xd0; 
	ld	bc,#_cmd + 14
	ld	a,#0xD0
	ld	(bc),a
;demo.c:679: cmd.source_x = 0;
	ld	hl,#_cmd
	ld	(hl),#0x00
	inc	hl
	ld	(hl),#0x00
;demo.c:680: cmd.source_y = 0;
	ld	hl, #_cmd + 2
	ld	(hl),#0x00
	inc	hl
	ld	(hl),#0x00
;demo.c:681: cmd.dest_x = 0;
	ld	hl, #_cmd + 4
	ld	(hl),#0x00
	inc	hl
	ld	(hl),#0x00
;demo.c:682: cmd.dest_y = 256;
	ld	hl, #_cmd + 6
	ld	(hl),#0x00
	inc	hl
	ld	(hl),#0x01
;demo.c:683: vdp_copier(&cmd);
	ld	hl,#_cmd
	push	hl
	call	_vdp_copier
	pop	af
;demo.c:685: pck_load("LF2     PCK",15990,0x0000,VRAM_0,0);
	ld	hl,#0x0000
	push	hl
	ld	l, #0x01
	push	hl
	ld	l, #0x00
	push	hl
	ld	hl,#0x3E76
	push	hl
	ld	hl,#__str_10
	push	hl
	call	_pck_load
	ld	iy,#0x000A
	add	iy,sp
	ld	sp,iy
;demo.c:687: cmd.size_x = 256;
	ld	hl, #_cmd + 8
	ld	(hl),#0x00
	inc	hl
	ld	(hl),#0x01
;demo.c:688: cmd.size_y = 212;
	ld	hl, #_cmd + 10
	ld	(hl),#0xD4
	inc	hl
	ld	(hl),#0x00
;demo.c:689: cmd.data = 0;
;demo.c:690: cmd.argument = 0x00;
	ld	a,#0x00
	ld	(#_cmd + 12),a
	ld	(#_cmd + 13),a
;demo.c:691: cmd.command = 0xd0; 
	ld	bc,#_cmd + 14
	ld	a,#0xD0
	ld	(bc),a
;demo.c:692: cmd.source_x = 0;
	ld	hl,#_cmd
	ld	(hl),#0x00
	inc	hl
	ld	(hl),#0x00
;demo.c:693: cmd.source_y = 0;
	ld	hl, #_cmd + 2
	ld	(hl),#0x00
	inc	hl
	ld	(hl),#0x00
;demo.c:694: cmd.dest_x = 0;
	ld	hl, #_cmd + 4
	ld	(hl),#0x00
	inc	hl
	ld	(hl),#0x00
;demo.c:695: cmd.dest_y = 512;
	ld	hl, #_cmd + 6
	ld	(hl),#0x00
	inc	hl
	ld	(hl),#0x02
;demo.c:696: vdp_copier(&cmd);
	ld	hl,#_cmd
	push	hl
	call	_vdp_copier
	pop	af
;demo.c:699: pck_load("LF3     PCK",15006,0x0000,VRAM_0,0);
	ld	hl,#0x0000
	push	hl
	ld	l, #0x01
	push	hl
	ld	l, #0x00
	push	hl
	ld	hl,#0x3A9E
	push	hl
	ld	hl,#__str_11
	push	hl
	call	_pck_load
	ld	iy,#0x000A
	add	iy,sp
	ld	sp,iy
;demo.c:701: cmd.size_x = 256;
	ld	hl, #_cmd + 8
	ld	(hl),#0x00
	inc	hl
	ld	(hl),#0x01
;demo.c:702: cmd.size_y = 212;
	ld	hl, #_cmd + 10
	ld	(hl),#0xD4
	inc	hl
	ld	(hl),#0x00
;demo.c:703: cmd.data = 0;
;demo.c:704: cmd.argument = 0x00;
	ld	a,#0x00
	ld	(#_cmd + 12),a
	ld	(#_cmd + 13),a
;demo.c:705: cmd.command = 0xd0; 
	ld	bc,#_cmd + 14
	ld	a,#0xD0
	ld	(bc),a
;demo.c:706: cmd.source_x = 0;
	ld	hl,#_cmd
	ld	(hl),#0x00
	inc	hl
	ld	(hl),#0x00
;demo.c:707: cmd.source_y = 0;
	ld	hl, #_cmd + 2
	ld	(hl),#0x00
	inc	hl
	ld	(hl),#0x00
;demo.c:708: cmd.dest_x = 0;
	ld	hl, #_cmd + 4
	ld	(hl),#0x00
	inc	hl
	ld	(hl),#0x00
;demo.c:709: cmd.dest_y = 768;
	ld	hl, #_cmd + 6
	ld	(hl),#0x00
	inc	hl
	ld	(hl),#0x03
;demo.c:710: vdp_copier(&cmd);
	ld	hl,#_cmd
	push	hl
	call	_vdp_copier
	pop	af
;demo.c:712: vdp_register(9,130); // 50hz,212
	ld	hl,#0x8209
	push	hl
	call	_vdp_register
	pop	af
;demo.c:714: scratch_clear();
	call	_scratch_clear
;demo.c:716: vdp_set_write_address(0, 0);
	ld	hl,#0x0000
	push	hl
	ld	a,#0x00
	push	af
	inc	sp
	call	_vdp_set_write_address
	pop	af
	inc	sp
;demo.c:718: for (y = 0; y < 212; y++) { 
	ld	c,#0xD4
00109$:
;demo.c:719: vdp_load_screen(scratch, 128);
	push	bc
	ld	a,#0x80
	push	af
	inc	sp
	ld	hl,#_scratch
	push	hl
	call	_vdp_load_screen
	pop	af
	inc	sp
	pop	bc
	dec	c
;demo.c:718: for (y = 0; y < 212; y++) { 
	xor	a,a
	or	a,c
	jr	NZ,00109$
;demo.c:722: install_isr(my_isr);
	ld	hl,#_my_isr
	push	hl
	call	_install_isr
	pop	af
;demo.c:723: anim_init = 1;
	ld	hl,#_anim_init + 0
	ld	(hl), #0x01
	ld	hl,#_anim_init + 1
	ld	(hl), #0x00
;demo.c:724: vdp_load_palette(tf_palette);
	ld	hl,#_tf_palette
	push	hl
	call	_vdp_load_palette
	pop	af
;demo.c:727: for (y = 0; y < 106; y+=1) {
00120$:
	ld	-1 (ix),#0x00
00110$:
	ld	a,-1 (ix)
	sub	a,#0x6A
	jp	NC,00113$
;demo.c:728: cmd.source_x = 0;
	ld	hl,#_cmd
	ld	(hl),#0x00
	inc	hl
	ld	(hl),#0x00
;demo.c:729: cmd.source_y = 256+po+frames+(y>>1);
	ld	de,#_cmd + 2
	ld	a,(#_po+0)
	ld	c,a
	ld	a,(#_po+1)
	add	a,#0x01
	ld	b,a
	ld	hl,#_frames
	ld	a,c
	add	a,(hl)
	ld	-3 (ix),a
	ld	a,b
	inc	hl
	adc	a,(hl)
	ld	-2 (ix),a
	ld	c,-1 (ix)
	srl	c
	ld	b,#0x00
	ld	a,-3 (ix)
	add	a,c
	ld	c,a
	ld	a,-2 (ix)
	adc	a,b
	ld	b,a
	ld	l,e
	ld	h,d
	ld	(hl),c
	inc	hl
	ld	(hl),b
;demo.c:730: cmd.dest_x = 0;
	ld	hl, #_cmd + 4
	ld	(hl),#0x00
	inc	hl
	ld	(hl),#0x00
;demo.c:731: cmd.dest_y = (y<<1);
	ld	bc,#_cmd + 6
	ld	e,-1 (ix)
	ld	d,#0x00
	sla	e
	rl	d
	ld	l,c
	ld	h,b
	ld	(hl),e
	inc	hl
	ld	(hl),d
;demo.c:732: cmd.size_x = 256;
	ld	hl, #_cmd + 8
	ld	(hl),#0x00
	inc	hl
	ld	(hl),#0x01
;demo.c:733: cmd.size_y = 1;
	ld	hl, #_cmd + 10
	ld	(hl),#0x01
	inc	hl
	ld	(hl),#0x00
;demo.c:734: cmd.data = 0;
;demo.c:735: cmd.argument = 0x00;
	ld	a,#0x00
	ld	(#_cmd + 12),a
	ld	(#_cmd + 13),a
;demo.c:736: cmd.command = 0xD0;
	ld	a,#0xD0
	ld	(#_cmd + 14),a
;demo.c:737: vdp_copier(&cmd);
	ld	hl,#_cmd
	push	hl
	call	_vdp_copier
	pop	af
;demo.c:727: for (y = 0; y < 106; y+=1) {
	inc	-1 (ix)
	jp	00110$
00113$:
;demo.c:740: frames+=53;
	ld	hl,#_frames
	ld	a,(hl)
	add	a,#0x35
	inc	hl
	dec	hl
	push	bc
	ld	c, a
	inc	hl
	ld	a, (hl)
	ld	b, a
	ld	a, c
	dec	hl
	ld	(hl), a
	ld	a, b
	pop	bc
	adc	a,#0x00
	inc	hl
	ld	(hl),a
;demo.c:741: if (frames >= 212) { frames = 0; po+=256; }
	ld	a,(#_frames+0)
	sub	a,#0xD4
	ld	a,(#_frames+1)
	sbc	a,#0x00
	jp	M,00104$
	ld	hl,#_frames + 0
	ld	(hl), #0x00
	ld	hl,#_frames + 1
	ld	(hl), #0x00
	ld	hl,#_po
	ld	a,(hl)
	add	a,#0x00
	inc	hl
	dec	hl
	push	bc
	ld	c, a
	inc	hl
	ld	a, (hl)
	ld	b, a
	ld	a, c
	dec	hl
	ld	(hl), a
	ld	a, b
	pop	bc
	adc	a,#0x01
	inc	hl
	ld	(hl),a
00104$:
;demo.c:742: if (po >= 768) {
	ld	a,(#_po+0)
	sub	a,#0x00
	ld	a,(#_po+1)
	sbc	a,#0x03
	jp	M,00114$
;demo.c:743: po = 0;
	ld	hl,#_po + 0
	ld	(hl), #0x00
	ld	hl,#_po + 1
	ld	(hl), #0x00
00114$:
	ld	sp,ix
	pop	ix
	ret
_animplay_end::
__str_9:
	.ascii "LF1     PCK"
	.db 0x00
__str_10:
	.ascii "LF2     PCK"
	.db 0x00
__str_11:
	.ascii "LF3     PCK"
	.db 0x00
;demo.c:759: void drawbox(uint8_t x, uint8_t y) {
;	---------------------------------
; Function drawbox
; ---------------------------------
_drawbox_start::
_drawbox:
	push	ix
	ld	ix,#0
	add	ix,sp
;demo.c:760: cmd.source_x = boxes_x[boxi];
	ld	hl,#_boxi
	ld	a,#<_boxes_x
	add	a,(hl)
	ld	c,a
	ld	a,#>_boxes_x
	adc	a,#0x00
	ld	b,a
	ld	a,(bc)
	ld	c,a
	ld	b,#0x00
	ld	hl,#_cmd
	ld	(hl),c
	inc	hl
	ld	(hl),b
;demo.c:761: cmd.source_y = boxes_y[boxi];
	ld	bc,#_cmd + 2
	ld	a,(#_boxi+0)
	add	a,a
	add	a,#<_boxes_y
	ld	l,a
	ld	a,#>_boxes_y
	adc	a,#0x00
	ld	h,a
	ld	e,(hl)
	inc	hl
	ld	d,(hl)
	ld	l,c
	ld	h,b
	ld	(hl),e
	inc	hl
	ld	(hl),d
;demo.c:762: cmd.dest_x = x;
	ld	bc,#_cmd + 4
	ld	e,4 (ix)
	ld	d,#0x00
	ld	l,c
	ld	h,b
	ld	(hl),e
	inc	hl
	ld	(hl),d
;demo.c:763: cmd.dest_y = y;
	ld	bc,#_cmd + 6
	ld	e,5 (ix)
	ld	d,#0x00
	ld	l,c
	ld	h,b
	ld	(hl),e
	inc	hl
	ld	(hl),d
;demo.c:764: cmd.size_x = 36;
	ld	hl, #_cmd + 8
	ld	(hl),#0x24
	inc	hl
	ld	(hl),#0x00
;demo.c:765: cmd.size_y = 36;
	ld	hl, #_cmd + 10
	ld	(hl),#0x24
	inc	hl
	ld	(hl),#0x00
;demo.c:766: cmd.data = 0;
;demo.c:767: cmd.argument = 0x00;
	ld	a,#0x00
	ld	(#_cmd + 12),a
	ld	(#_cmd + 13),a
;demo.c:768: cmd.command = 0x98; // TIMP sprite
	ld	a,#0x98
	ld	(#_cmd + 14),a
;demo.c:769: vdp_copier(&cmd);
	ld	hl,#_cmd
	push	hl
	call	_vdp_copier
	pop	af
;demo.c:771: prevx = x;
	ld	a,4 (ix)
	ld	hl,#_prevx + 0
	ld	(hl), a
	ld	hl,#_prevx + 1
	ld	(hl), #0x00
;demo.c:772: prevy = y;
	ld	a,5 (ix)
	ld	hl,#_prevy + 0
	ld	(hl), a
	ld	hl,#_prevy + 1
	ld	(hl), #0x00
	pop	ix
	ret
_drawbox_end::
;demo.c:786: void boxes() {
;	---------------------------------
; Function boxes
; ---------------------------------
_boxes_start::
_boxes:
;demo.c:789: if (bonc == 1) {
	ld	a,(#_bonc+0)
	sub	a,#0x01
	jr	NZ,00152$
	ld	a,(#_bonc+1)
	or	a,a
	jr	Z,00153$
00152$:
	jr	00102$
00153$:
;demo.c:791: cmd.source_x = 0;
	ld	hl,#_cmd
	ld	(hl),#0x00
	inc	hl
	ld	(hl),#0x00
;demo.c:792: cmd.source_y = 256;
	ld	hl, #_cmd + 2
	ld	(hl),#0x00
	inc	hl
	ld	(hl),#0x01
;demo.c:793: cmd.dest_x = pbx;
	ld	bc,#_cmd + 4
	ld	de,(_pbx)
	ld	l,c
	ld	h,b
	ld	(hl),e
	inc	hl
	ld	(hl),d
;demo.c:794: cmd.dest_y = pbt;
	ld	bc,#_cmd + 6
	ld	de,(_pbt)
	ld	l,c
	ld	h,b
	ld	(hl),e
	inc	hl
	ld	(hl),d
;demo.c:795: cmd.size_x = 36;
	ld	hl, #_cmd + 8
	ld	(hl),#0x24
	inc	hl
	ld	(hl),#0x00
;demo.c:796: cmd.size_y = 36;
	ld	hl, #_cmd + 10
	ld	(hl),#0x24
	inc	hl
	ld	(hl),#0x00
;demo.c:797: cmd.data = 0;
;demo.c:798: cmd.argument = 0x00;
	ld	a,#0x00
	ld	(#_cmd + 12),a
	ld	(#_cmd + 13),a
;demo.c:799: cmd.command = 0xD0; // HMMM
	ld	a,#0xD0
	ld	(#_cmd + 14),a
;demo.c:800: vdp_copier(&cmd);
	ld	hl,#_cmd
	push	hl
	call	_vdp_copier
	pop	af
00102$:
;demo.c:803: if (boxes_init == 0) {
	xor	a,a
	ld	hl,#_boxes_init + 0
	or	a,(hl)
	jp	NZ,00104$
;demo.c:804: boxes_init = 1;
	ld	iy,#_boxes_init
	ld	0 (iy),#0x01
;demo.c:806: cmd.size_x = 8;
	ld	hl, #_cmd + 8
	ld	(hl),#0x08
	inc	hl
	ld	(hl),#0x00
;demo.c:807: cmd.size_y = 212;
	ld	hl, #_cmd + 10
	ld	(hl),#0xD4
	inc	hl
	ld	(hl),#0x00
;demo.c:808: cmd.data = 0;
;demo.c:809: cmd.argument = 0x00; // from 70xY to left
	ld	a,#0x00
	ld	(#_cmd + 12),a
	ld	(#_cmd + 13),a
;demo.c:810: cmd.command = 0xd0; // vram to vram, y only
	ld	bc,#_cmd + 14
	ld	a,#0xD0
	ld	(bc),a
;demo.c:811: cmd.source_x = 248;
	ld	hl,#_cmd
	ld	(hl),#0xF8
	inc	hl
	ld	(hl),#0x00
;demo.c:812: cmd.source_y = 0;
	ld	hl, #_cmd + 2
	ld	(hl),#0x00
	inc	hl
	ld	(hl),#0x00
;demo.c:813: cmd.dest_y = 0;
	ld	hl, #_cmd + 6
	ld	(hl),#0x00
	inc	hl
	ld	(hl),#0x00
;demo.c:815: for (x = 248; x >= 0; x-=8) {
	ld	bc,#0x00F8
00128$:
	ld	a,b
	bit	7,a
	jr	NZ,00131$
;demo.c:816: waitVB();
		halt 
;demo.c:817: cmd.dest_x = x;
	ld	de,#_cmd + 4
	ex	de,hl
	ld	(hl),c
	inc	hl
	ld	(hl),b
;demo.c:818: cmd.dest_y = 0;
	ld	de,#_cmd + 6
	ex	de,hl
	ld	(hl),#0x00
	inc	hl
	ld	(hl),#0x00
;demo.c:819: vdp_copier(&cmd);
	push	bc
	ld	hl,#_cmd
	push	hl
	call	_vdp_copier
	pop	af
	pop	bc
;demo.c:820: cmd.dest_y = 256;
	ld	de,#_cmd + 6
	ex	de,hl
	ld	(hl),#0x00
	inc	hl
	ld	(hl),#0x01
;demo.c:821: vdp_copier(&cmd);
	push	bc
	ld	hl,#_cmd
	push	hl
	call	_vdp_copier
	pop	af
	pop	bc
;demo.c:815: for (x = 248; x >= 0; x-=8) {
	ld	a,c
	add	a,#0xF8
	ld	c,a
	ld	a,b
	adc	a,#0xFF
	ld	b,a
	jr	00128$
00131$:
;demo.c:824: drawsine("LET US STOP   WE ARE BUILDING WALLS BETWEEN",8,180);
	ld	hl,#0xB408
	push	hl
	ld	hl,#__str_12
	push	hl
	call	_drawsine
	pop	af
	pop	af
;demo.c:826: vdp_load_palette(boxes_palette);
	ld	hl,#_boxes_palette
	push	hl
	call	_vdp_load_palette
	pop	af
00104$:
;demo.c:829: if (bt >= 80) bt+=6;
	ld	a,(#_bt+0)
	sub	a,#0x50
	ld	a,(#_bt+1)
	sbc	a,#0x00
	jp	M,00106$
	ld	hl,#_bt
	ld	a,(hl)
	add	a,#0x06
	inc	hl
	dec	hl
	push	bc
	ld	c, a
	inc	hl
	ld	a, (hl)
	ld	b, a
	ld	a, c
	dec	hl
	ld	(hl), a
	ld	a, b
	pop	bc
	adc	a,#0x00
	inc	hl
	ld	(hl),a
00106$:
;demo.c:830: if (bt < 80 && bt >= 60) bt+=5;
	ld	a,(#_bt+0)
	sub	a,#0x50
	ld	a,(#_bt+1)
	sbc	a,#0x00
	jp	P,00108$
	ld	a,(#_bt+0)
	sub	a,#0x3C
	ld	a,(#_bt+1)
	sbc	a,#0x00
	jp	M,00108$
	ld	hl,#_bt
	ld	a,(hl)
	add	a,#0x05
	inc	hl
	dec	hl
	push	bc
	ld	c, a
	inc	hl
	ld	a, (hl)
	ld	b, a
	ld	a, c
	dec	hl
	ld	(hl), a
	ld	a, b
	pop	bc
	adc	a,#0x00
	inc	hl
	ld	(hl),a
00108$:
;demo.c:831: if (bt < 60 && bt >= 40) bt+=4;
	ld	a,(#_bt+0)
	sub	a,#0x3C
	ld	a,(#_bt+1)
	sbc	a,#0x00
	jp	P,00111$
	ld	a,(#_bt+0)
	sub	a,#0x28
	ld	a,(#_bt+1)
	sbc	a,#0x00
	jp	M,00111$
	ld	hl,#_bt
	ld	a,(hl)
	add	a,#0x04
	inc	hl
	dec	hl
	push	bc
	ld	c, a
	inc	hl
	ld	a, (hl)
	ld	b, a
	ld	a, c
	dec	hl
	ld	(hl), a
	ld	a, b
	pop	bc
	adc	a,#0x00
	inc	hl
	ld	(hl),a
00111$:
;demo.c:832: if (bt < 40 && bt >= 10) bt+=3;
	ld	a,(#_bt+0)
	sub	a,#0x28
	ld	a,(#_bt+1)
	sbc	a,#0x00
	jp	P,00114$
	ld	a,(#_bt+0)
	sub	a,#0x0A
	ld	a,(#_bt+1)
	sbc	a,#0x00
	jp	M,00114$
	ld	hl,#_bt
	ld	a,(hl)
	add	a,#0x03
	inc	hl
	dec	hl
	push	bc
	ld	c, a
	inc	hl
	ld	a, (hl)
	ld	b, a
	ld	a, c
	dec	hl
	ld	(hl), a
	ld	a, b
	pop	bc
	adc	a,#0x00
	inc	hl
	ld	(hl),a
00114$:
;demo.c:833: if (bt < 10 ) bt+=2;
	ld	a,(#_bt+0)
	sub	a,#0x0A
	ld	a,(#_bt+1)
	sbc	a,#0x00
	jp	P,00117$
	ld	hl,#_bt
	ld	a,(hl)
	add	a,#0x02
	inc	hl
	dec	hl
	push	bc
	ld	c, a
	inc	hl
	ld	a, (hl)
	ld	b, a
	ld	a, c
	dec	hl
	ld	(hl), a
	ld	a, b
	pop	bc
	adc	a,#0x00
	inc	hl
	ld	(hl),a
00117$:
;demo.c:836: cmd.source_x = bx;
	ld	bc,(_bx)
	ld	hl,#_cmd
	ld	(hl),c
	inc	hl
	ld	(hl),b
;demo.c:837: cmd.source_y = bt;
	ld	bc,#_cmd + 2
	ld	de,(_bt)
	ld	l,c
	ld	h,b
	ld	(hl),e
	inc	hl
	ld	(hl),d
;demo.c:838: cmd.dest_x = 0;
	ld	hl, #_cmd + 4
	ld	(hl),#0x00
	inc	hl
	ld	(hl),#0x00
;demo.c:839: cmd.dest_y = 256;
	ld	hl, #_cmd + 6
	ld	(hl),#0x00
	inc	hl
	ld	(hl),#0x01
;demo.c:840: cmd.size_x = 36;
	ld	hl, #_cmd + 8
	ld	(hl),#0x24
	inc	hl
	ld	(hl),#0x00
;demo.c:841: cmd.size_y = 36;
	ld	hl, #_cmd + 10
	ld	(hl),#0x24
	inc	hl
	ld	(hl),#0x00
;demo.c:842: cmd.data = 0;
;demo.c:843: cmd.argument = 0x00;
	ld	a,#0x00
	ld	(#_cmd + 12),a
	ld	(#_cmd + 13),a
;demo.c:844: cmd.command = 0xD0; // HMMM
	ld	a,#0xD0
	ld	(#_cmd + 14),a
;demo.c:845: vdp_copier(&cmd);
	ld	hl,#_cmd
	push	hl
	call	_vdp_copier
	pop	af
;demo.c:847: pbx = bx;
	ld	hl,(_bx)
	ld	iy,#_pbx
	ld	0 (iy),l
	ld	iy,#_pbx
	ld	1 (iy),h
;demo.c:848: pbt = bt;
	ld	hl,(_bt)
	ld	iy,#_pbt
	ld	0 (iy),l
	ld	iy,#_pbt
	ld	1 (iy),h
;demo.c:851: drawbox(bx,bt);
	ld	hl,#_bt + 0
	ld	c,(hl)
	ld	hl,#_bx + 0
	ld	b,(hl)
	ld	a,c
	push	af
	inc	sp
	push	bc
	inc	sp
	call	_drawbox
	pop	af
;demo.c:854: bonc = 1;
	ld	hl,#_bonc + 0
	ld	(hl), #0x01
	ld	hl,#_bonc + 1
	ld	(hl), #0x00
;demo.c:855: if (bt > by) {
	ld	hl,#_by
	ld	a,(hl)
	ld	iy,#_bt
	sub	a,0 (iy)
	inc	hl
	ld	a,(hl)
	ld	iy,#_bt
	sbc	a,1 (iy)
	ret	P
;demo.c:857: bt = 0;
	ld	hl,#_bt + 0
	ld	(hl), #0x00
	ld	hl,#_bt + 1
	ld	(hl), #0x00
;demo.c:858: if (by > 0) {
	ld	a,#0x00
	ld	iy,#_by
	sub	a,0 (iy)
	ld	a,#0x00
	ld	iy,#_by
	sbc	a,1 (iy)
	jp	P,00121$
;demo.c:859: bonc = 0;
	ld	hl,#_bonc + 0
	ld	(hl), #0x00
	ld	hl,#_bonc + 1
	ld	(hl), #0x00
;demo.c:860: by-=16;
	ld	hl,#_by
	ld	a,(hl)
	add	a,#0xF0
	ld	(hl),a
	inc	hl
	ld	a,(hl)
	adc	a,#0xFF
	ld	(hl),a
;demo.c:861: prevbox_of = boxes_of[boxi];
	ld	a,(#_boxi+0)
	add	a,a
	add	a,#<_boxes_of
	ld	l,a
	ld	a,#>_boxes_of
	adc	a,#0x00
	ld	h,a
	ld	c,(hl)
	inc	hl
	ld	hl,#_prevbox_of + 0
	ld	(hl), c
;demo.c:862: by+=prevbox_of;
	ld	hl,#_prevbox_of + 0
	ld	c,(hl)
	ld	b,#0x00
	ld	hl,#_by
	ld	a,(hl)
	add	a,c
	inc	hl
	dec	hl
	push	bc
	ld	c, a
	inc	hl
	ld	a, (hl)
	ld	b, a
	ld	a, c
	dec	hl
	ld	(hl), a
	ld	a, b
	pop	bc
	adc	a,b
	inc	hl
	ld	(hl),a
;demo.c:863: boxi++;
	ld	iy,#_boxi
	inc	0 (iy)
;demo.c:864: if (boxi >= 4) boxi = 0;
	ld	a,(#_boxi+0)
	sub	a,#0x04
	jr	C,00121$
	ld	hl,#_boxi + 0
	ld	(hl), #0x00
00121$:
;demo.c:867: if (by <= 0) {
	ld	a,#0x00
	ld	iy,#_by
	sub	a,0 (iy)
	ld	a,#0x00
	ld	iy,#_by
	sbc	a,1 (iy)
	ret	M
;demo.c:868: bx-=16;
	ld	hl,#_bx
	ld	a,(hl)
	add	a,#0xF0
	ld	(hl),a
	inc	hl
	ld	a,(hl)
	adc	a,#0xFF
	ld	(hl),a
;demo.c:869: bo+=8;
	ld	hl,#_bo
	ld	a,(hl)
	add	a,#0x08
	inc	hl
	dec	hl
	push	bc
	ld	c, a
	inc	hl
	ld	a, (hl)
	ld	b, a
	ld	a, c
	dec	hl
	ld	(hl), a
	ld	a, b
	pop	bc
	adc	a,#0x00
	inc	hl
	ld	(hl),a
;demo.c:870: if (bo > 192) bo = 0;
	ld	a,#0xC0
	ld	iy,#_bo
	sub	a,0 (iy)
	ld	a,#0x00
	ld	iy,#_bo
	sbc	a,1 (iy)
	jp	P,00123$
	ld	hl,#_bo + 0
	ld	(hl), #0x00
	ld	hl,#_bo + 1
	ld	(hl), #0x00
00123$:
;demo.c:871: by=84+bo;
	ld	hl,#_by
	ld	a,(#_bo+0)
	add	a,#0x54
	ld	(hl),a
	ld	a,(#_bo+1)
	adc	a,#0x00
	inc	hl
	ld	(hl),a
	ret
_boxes_end::
__str_12:
	.ascii "LET US STOP   WE ARE BUILDING WALLS BETWEEN"
	.db 0x00
;demo.c:881: void drawtritile(uint8_t tx, int ty, uint8_t x, uint8_t y) {
;	---------------------------------
; Function drawtritile
; ---------------------------------
_drawtritile_start::
_drawtritile:
	push	ix
	ld	ix,#0
	add	ix,sp
;demo.c:882: cmd.source_x = tx;
	ld	c,4 (ix)
	ld	b,#0x00
	ld	hl,#_cmd
	ld	(hl),c
	inc	hl
	ld	(hl),b
;demo.c:883: cmd.source_y = ty-1;
	ld	bc,#_cmd + 2
	ld	e,5 (ix)
	ld	d,6 (ix)
	dec	de
	ld	l,c
	ld	h,b
	ld	(hl),e
	inc	hl
	ld	(hl),d
;demo.c:884: cmd.dest_x = x;
	ld	bc,#_cmd + 4
	ld	e,7 (ix)
	ld	d,#0x00
	ld	l,c
	ld	h,b
	ld	(hl),e
	inc	hl
	ld	(hl),d
;demo.c:885: cmd.dest_y = y;
	ld	bc,#_cmd + 6
	ld	e,8 (ix)
	ld	d,#0x00
	ld	l,c
	ld	h,b
	ld	(hl),e
	inc	hl
	ld	(hl),d
;demo.c:886: cmd.size_x = 16;
	ld	hl, #_cmd + 8
	ld	(hl),#0x10
	inc	hl
	ld	(hl),#0x00
;demo.c:887: cmd.size_y = 16;
	ld	hl, #_cmd + 10
	ld	(hl),#0x10
	inc	hl
	ld	(hl),#0x00
;demo.c:888: cmd.data = 0;
;demo.c:889: cmd.argument = 0x00;
	ld	a,#0x00
	ld	(#_cmd + 12),a
	ld	(#_cmd + 13),a
;demo.c:890: cmd.command = 0xd0; // HMMM
	ld	a,#0xD0
	ld	(#_cmd + 14),a
;demo.c:891: vdp_copier(&cmd);
	ld	hl,#_cmd
	push	hl
	call	_vdp_copier
	pop	af
	pop	ix
	ret
_drawtritile_end::
;demo.c:894: void drawtilescreen(char* tripic) {
;	---------------------------------
; Function drawtilescreen
; ---------------------------------
_drawtilescreen_start::
_drawtilescreen:
	push	ix
	ld	ix,#0
	add	ix,sp
	ld	hl,#-8
	add	hl,sp
	ld	sp,hl
;demo.c:895: int x = 0;
	ld	-2 (ix),#0x00
	ld	-1 (ix),#0x00
;demo.c:898: while(i < 192) {
	ld	-4 (ix),#0x00
	ld	-3 (ix),#0x00
	ld	-6 (ix),#0x00
	ld	-5 (ix),#0x00
00103$:
	ld	a,-6 (ix)
	sub	a,#0xC0
	ld	a,-5 (ix)
	sbc	a,#0x00
	jp	P,00106$
;demo.c:899: drawtritile(tri_lookup_x[tripic[i]],tri_lookup_y[tripic[i]],x,y);
	ld	a,-4 (ix)
	ld	-8 (ix),a
	ld	a,-2 (ix)
	ld	-7 (ix),a
	ld	a,4 (ix)
	add	a,-6 (ix)
	ld	c,a
	ld	a,5 (ix)
	adc	a,-5 (ix)
	ld	b,a
	ld	a,(bc)
	ld	c,a
	add	a,a
	add	a,#<_tri_lookup_y
	ld	l,a
	ld	a,#>_tri_lookup_y
	adc	a,#0x00
	ld	h,a
	ld	b,(hl)
	inc	hl
	ld	d,(hl)
	ld	a,#<_tri_lookup_x
	add	a,c
	ld	l,a
	ld	a,#>_tri_lookup_x
	adc	a,#0x00
	ld	h,a
	ld	c,(hl)
	ld	h,-8 (ix)
	ld	l,-7 (ix)
	push	hl
	ld	e,b
	push	de
	ld	a,c
	push	af
	inc	sp
	call	_drawtritile
	pop	af
	pop	af
	inc	sp
;demo.c:900: x+=16;
	ld	a,-2 (ix)
	add	a,#0x10
	ld	-2 (ix),a
	ld	a,-1 (ix)
	adc	a,#0x00
	ld	-1 (ix),a
;demo.c:901: if (x >= 256) {x = 0; y+=16;}
	ld	a,-2 (ix)
	sub	a,#0x00
	ld	a,-1 (ix)
	sbc	a,#0x01
	jp	M,00102$
	ld	-2 (ix),#0x00
	ld	-1 (ix),#0x00
	ld	a,-4 (ix)
	add	a,#0x10
	ld	-4 (ix),a
	ld	a,-3 (ix)
	adc	a,#0x00
	ld	-3 (ix),a
00102$:
;demo.c:902: i++;
	inc	-6 (ix)
	jr	NZ,00112$
	inc	-5 (ix)
00112$:
	jp	00103$
00106$:
	ld	sp,ix
	pop	ix
	ret
_drawtilescreen_end::
;demo.c:917: void tritiles() {
;	---------------------------------
; Function tritiles
; ---------------------------------
_tritiles_start::
_tritiles:
	push	ix
	ld	ix,#0
	add	ix,sp
	ld	hl,#-5
	add	hl,sp
	ld	sp,hl
;demo.c:924: if (tri_inited == 0) {
	xor	a,a
	ld	hl,#_tri_inited + 0
	or	a,(hl)
	jp	NZ,00102$
;demo.c:925: tri_inited = 1;
	ld	iy,#_tri_inited
	ld	0 (iy),#0x01
;demo.c:927: cmd.size_x = 256;
	ld	hl, #_cmd + 8
	ld	(hl),#0x00
	inc	hl
	ld	(hl),#0x01
;demo.c:928: cmd.size_y = 1;
	ld	hl, #_cmd + 10
	ld	(hl),#0x01
	inc	hl
	ld	(hl),#0x00
;demo.c:929: cmd.data = 0;
;demo.c:930: cmd.argument = 0x00; // from 70xY to left
	ld	a,#0x00
	ld	(#_cmd + 12),a
	ld	(#_cmd + 13),a
;demo.c:931: cmd.command = 0xd0; // vram to vram, y only
	ld	bc,#_cmd + 14
	ld	a,#0xD0
	ld	(bc),a
;demo.c:932: cmd.source_x = 0;
	ld	hl,#_cmd
	ld	(hl),#0x00
	inc	hl
	ld	(hl),#0x00
;demo.c:933: cmd.source_y = 255;
	ld	hl, #_cmd + 2
	ld	(hl),#0xFF
	inc	hl
	ld	(hl),#0x00
;demo.c:934: cmd.dest_y = 0;
	ld	bc,#_cmd + 6
	ld	l,c
	ld	h,b
	ld	(hl),#0x00
	inc	hl
	ld	(hl),#0x00
;demo.c:936: for (x = 0; x < 212; x++) {
	ld	-2 (ix),#0xD4
	ld	-1 (ix),#0x00
00121$:
;demo.c:937: waitVB();
		halt 
;demo.c:938: cmd.dest_x = 0;
	ld	de,#_cmd + 4
	ex	de,hl
	ld	(hl),#0x00
	inc	hl
	ld	(hl),#0x00
;demo.c:939: cmd.dest_y = x;
	ld	de,#_cmd + 6
	ld	c,-2 (ix)
	ld	b,-1 (ix)
	dec	bc
	ex	de,hl
	ld	(hl),c
	inc	hl
	ld	(hl),b
;demo.c:940: vdp_copier(&cmd);
	push	bc
	ld	hl,#_cmd
	push	hl
	call	_vdp_copier
	pop	af
	pop	bc
	ld	-2 (ix),c
	ld	-1 (ix),b
;demo.c:936: for (x = 0; x < 212; x++) {
	ld	a,-2 (ix)
	or	a,-1 (ix)
	jr	NZ,00121$
;demo.c:943: vdp_register(9,2); // 50hz,192
	ld	hl,#0x0209
	push	hl
	call	_vdp_register
	pop	af
;demo.c:945: vdp_load_palette(boxes_palette);
	ld	hl,#_boxes_palette
	push	hl
	call	_vdp_load_palette
	pop	af
;demo.c:947: msx2_palette(15,0,0,0);
	ld	hl,#0x0000
	push	hl
	ld	l, #0x0F
	push	hl
	call	_msx2_palette
	pop	af
	pop	af
;demo.c:949: drawtilescreen(tri_center);
	ld	hl,#_tri_center
	push	hl
	call	_drawtilescreen
	pop	af
00102$:
;demo.c:954: triframes++;
	ld	iy,#_triframes
	inc	0 (iy)
	jr	NZ,00142$
	ld	iy,#_triframes
	inc	1 (iy)
00142$:
;demo.c:955: if (triframes == 200) {
	ld	a,(#_triframes+0)
	sub	a,#0xC8
	jr	NZ,00143$
	ld	a,(#_triframes+1)
	or	a,a
	jr	Z,00144$
00143$:
	jr	00104$
00144$:
;demo.c:956: drawtilescreen(tri_up);
	ld	hl,#_tri_up
	push	hl
	call	_drawtilescreen
	pop	af
00104$:
;demo.c:959: if (triframes == 400) {
	ld	a,(#_triframes+0)
	sub	a,#0x90
	jr	NZ,00145$
	ld	a,(#_triframes+1)
	sub	a,#0x01
	jr	Z,00146$
00145$:
	jr	00106$
00146$:
;demo.c:960: drawtilescreen(tri_dia);
	ld	hl,#_tri_dia
	push	hl
	call	_drawtilescreen
	pop	af
00106$:
;demo.c:962: if (triframes == 600) {
	ld	a,(#_triframes+0)
	sub	a,#0x58
	jr	NZ,00147$
	ld	a,(#_triframes+1)
	sub	a,#0x02
	jr	Z,00148$
00147$:
	jr	00108$
00148$:
;demo.c:963: drawtilescreen(tri_side1);
	ld	hl,#_tri_side1
	push	hl
	call	_drawtilescreen
	pop	af
00108$:
;demo.c:965: if (triframes == 700) {
	ld	a,(#_triframes+0)
	sub	a,#0xBC
	jr	NZ,00149$
	ld	a,(#_triframes+1)
	sub	a,#0x02
	jr	Z,00150$
00149$:
	jr	00110$
00150$:
;demo.c:966: drawtilescreen(tri_side2);
	ld	hl,#_tri_side2
	push	hl
	call	_drawtilescreen
	pop	af
00110$:
;demo.c:968: if (triframes == 800) {
	ld	a,(#_triframes+0)
	sub	a,#0x20
	jr	NZ,00151$
	ld	a,(#_triframes+1)
	sub	a,#0x03
	jr	Z,00152$
00151$:
	jr	00112$
00152$:
;demo.c:969: drawtilescreen(tri_side1);
	ld	hl,#_tri_side1
	push	hl
	call	_drawtilescreen
	pop	af
00112$:
;demo.c:971: if (triframes == 900) {
	ld	a,(#_triframes+0)
	sub	a,#0x84
	jr	NZ,00153$
	ld	a,(#_triframes+1)
	sub	a,#0x03
	jr	Z,00154$
00153$:
	jr	00114$
00154$:
;demo.c:972: drawtilescreen(tri_side2);
	ld	hl,#_tri_side2
	push	hl
	call	_drawtilescreen
	pop	af
00114$:
;demo.c:974: if (triframes == 1000) {
	ld	a,(#_triframes+0)
	sub	a,#0xE8
	jr	NZ,00155$
	ld	a,(#_triframes+1)
	sub	a,#0x03
	jr	Z,00156$
00155$:
	jr	00116$
00156$:
;demo.c:975: triframes = 0;
	ld	hl,#_triframes + 0
	ld	(hl), #0x00
	ld	hl,#_triframes + 1
	ld	(hl), #0x00
;demo.c:976: drawtilescreen(tri_center);
	ld	hl,#_tri_center
	push	hl
	call	_drawtilescreen
	pop	af
00116$:
;demo.c:979: msx2_palette(3,tripal[0],tripal[1],tripal[2]);
	ld	hl,#_tripal + 2
	ld	c,(hl)
	ld	de,#_tripal + 1
	ld	a,(de)
	ld	b,a
	ld	hl,#_tripal
	ld	e,(hl)
	ld	a,c
	push	af
	inc	sp
	push	bc
	inc	sp
	ld	d,e
	ld	e,#0x03
	push	de
	call	_msx2_palette
	pop	af
	pop	af
;demo.c:980: msx2_palette(13,tripal[3],tripal[4],tripal[5]);
	ld	hl,#_tripal + 5
	ld	c,(hl)
	ld	de,#_tripal + 4
	ld	a,(de)
	ld	b,a
	ld	hl,#_tripal + 3
	ld	e,(hl)
	ld	a,c
	push	af
	inc	sp
	push	bc
	inc	sp
	ld	d,e
	ld	e,#0x0D
	push	de
	call	_msx2_palette
	pop	af
	pop	af
;demo.c:981: msx2_palette(5,tripal[6],tripal[7],tripal[8]);
	ld	hl,#_tripal + 8
	ld	c,(hl)
	ld	de,#_tripal + 7
	ld	a,(de)
	ld	b,a
	ld	hl,#_tripal + 6
	ld	e,(hl)
	ld	a,c
	push	af
	inc	sp
	push	bc
	inc	sp
	ld	d,e
	ld	e,#0x05
	push	de
	call	_msx2_palette
	pop	af
	pop	af
;demo.c:984: tripaltick++;
	ld	iy,#_tripaltick
	inc	0 (iy)
;demo.c:985: if (tripaltick > 6) {
	ld	a,#0x06
	ld	iy,#_tripaltick
	sub	a,0 (iy)
	jp	NC,00126$
;demo.c:987: r = tripal[0];
	ld	hl,#_tripal
	ld	c,(hl)
	ld	-3 (ix),c
;demo.c:988: g = tripal[1];
	ld	de,#_tripal + 1
	ld	a,(de)
	ld	-4 (ix),a
;demo.c:989: b = tripal[2];
	ld	hl,#_tripal + 2
	ld	e,(hl)
	ld	-5 (ix),e
;demo.c:991: for (x = 0; x < 6; x++) {
	ld	-2 (ix),#0x00
	ld	-1 (ix),#0x00
00122$:
	ld	a,-2 (ix)
	sub	a,#0x06
	ld	a,-1 (ix)
	sbc	a,#0x00
	jp	P,00125$
;demo.c:992: tripal[x] = tripal[x+3];
	ld	a,#<_tripal
	add	a,-2 (ix)
	ld	c,a
	ld	a,#>_tripal
	adc	a,-1 (ix)
	ld	b,a
	ld	e,-2 (ix)
	inc	e
	inc	e
	inc	e
	ld	a,#<_tripal
	add	a,e
	ld	e,a
	ld	a,#>_tripal
	adc	a,#0x00
	ld	d,a
	ld	a,(de)
	ld	(bc),a
;demo.c:991: for (x = 0; x < 6; x++) {
	inc	-2 (ix)
	jr	NZ,00157$
	inc	-1 (ix)
00157$:
	jr	00122$
00125$:
;demo.c:995: tripal[6] = r;
	ld	bc,#_tripal + 6
	ld	a,-3 (ix)
	ld	(bc),a
;demo.c:996: tripal[7] = g;
	ld	bc,#_tripal + 7
	ld	a,-4 (ix)
	ld	(bc),a
;demo.c:997: tripal[8] = b;
	ld	bc,#_tripal + 8
	ld	a,-5 (ix)
	ld	(bc),a
;demo.c:998: tripaltick = 0;
	ld	hl,#_tripaltick + 0
	ld	(hl), #0x00
00126$:
	ld	sp,ix
	pop	ix
	ret
_tritiles_end::
;demo.c:1007: void do_quit() {
;	---------------------------------
; Function do_quit
; ---------------------------------
_do_quit_start::
_do_quit:
;demo.c:1008: waitVB();
		halt 
;demo.c:1009: uninstall_isr();
	call	_uninstall_isr
;demo.c:1010: PLY_Stop();
	call	_PLY_Stop
;demo.c:1011: PLY_SendRegisters();
	call	_PLY_SendRegisters
;demo.c:1013: screen(0);
	ld	a,#0x00
	push	af
	inc	sp
	call	_screen
	inc	sp
;demo.c:1015: puts("demo quit\r\n\r\n");
	ld	hl,#__str_13
	push	hl
	call	_puts
	pop	af
;demo.c:1017: exit(0);	
	ld	a,#0x00
	push	af
	inc	sp
	call	_exit
	inc	sp
	ret
_do_quit_end::
__str_13:
	.ascii "demo quit"
	.db 0x0D
	.db 0x0A
	.db 0x0D
	.db 0x0A
	.db 0x00
;demo.c:1041: void main() {
;	---------------------------------
; Function main
; ---------------------------------
_main_start::
_main:
	push	ix
	ld	ix,#0
	add	ix,sp
	ld	hl,#-7
	add	hl,sp
	ld	sp,hl
;demo.c:1042: unsigned char quit=0;
	ld	-1 (ix),#0x00
;demo.c:1048: spindown();
	call	_spindown
;demo.c:1050: puts("demo init\r\n\r\n");
	ld	hl,#__str_14
	push	hl
	call	_puts
	pop	af
;demo.c:1052: for (y = 0; y < 2; y++) {
	ld	-5 (ix),#0x00
	ld	-4 (ix),#0x00
00118$:
	ld	a,-5 (ix)
	sub	a,#0x02
	ld	a,-4 (ix)
	sbc	a,#0x00
	jp	P,00121$
;demo.c:1053: for (x = 0; x < 16; x++) {
	ld	c,-5 (ix)
	ld	b,-4 (ix)
	sla	c
	rl	b
	sla	c
	rl	b
	sla	c
	rl	b
	sla	c
	rl	b
	ld	hl,#0x0381
	add	hl,bc
	ld	-7 (ix),l
	ld	-6 (ix),h
	ld	-3 (ix),#0x00
	ld	-2 (ix),#0x00
00114$:
	ld	a,-3 (ix)
	sub	a,#0x10
	ld	a,-2 (ix)
	sbc	a,#0x00
	jp	P,00120$
;demo.c:1054: tri_lookup_x[(y*16)+x] = x * 16;
	ld	a,-5 (ix)
	rlca
	rlca
	rlca
	rlca
	and	a,#0xF0
	ld	e,a
	ld	d,-3 (ix)
	ld	a,e
	add	a,d
	ld	e, a
	add	a,#<_tri_lookup_x
	ld	c,a
	ld	a,#>_tri_lookup_x
	adc	a,#0x00
	ld	b,a
	ld	a,d
	rlca
	rlca
	rlca
	rlca
	and	a,#0xF0
	ld	(bc),a
;demo.c:1055: tri_lookup_y[(y*16)+x] = (768+129)+(y * 16);
	sla	e
	ld	a,#<_tri_lookup_y
	add	a,e
	ld	l,a
	ld	a,#>_tri_lookup_y
	adc	a,#0x00
	ld	h,a
	ld	a,-7 (ix)
	ld	(hl),a
	inc	hl
	ld	a,-6 (ix)
	ld	(hl),a
;demo.c:1053: for (x = 0; x < 16; x++) {
	inc	-3 (ix)
	jr	NZ,00139$
	inc	-2 (ix)
00139$:
	jp	00114$
00120$:
;demo.c:1052: for (y = 0; y < 2; y++) {
	inc	-5 (ix)
	jr	NZ,00140$
	inc	-4 (ix)
00140$:
	jp	00118$
00121$:
;demo.c:1059: puts("music init...");
	ld	hl,#__str_15
	push	hl
	call	_puts
	pop	af
;demo.c:1061: PLY_SongPtr = (char *)0x0103;
	ld	hl,#_PLY_SongPtr + 0
	ld	(hl), #0x03
	ld	hl,#_PLY_SongPtr + 1
	ld	(hl), #0x01
;demo.c:1062: PLY_Init();
	call	_PLY_Init
;demo.c:1063: puts("done.\r\n");
	ld	hl,#__str_16
	push	hl
	call	_puts
	pop	af
;demo.c:1065: puts("detecting vdp type...\r\n\r\n");
	ld	hl,#__str_17
	push	hl
	call	_puts
	pop	af
;demo.c:1066: if(isvdp2())
	call	_isvdp2
	xor	a,a
	or	a,l
	jr	Z,00102$
;demo.c:1068: puts("vdp2 found! setting 50hz...\r\n\r\n");
	ld	hl,#__str_18
	push	hl
	call	_puts
	pop	af
	jr	00103$
00102$:
;demo.c:1071: puts(" vdp1 found.\r\nSorry, this demo requires a VDP2 with 128k for VRAM.\r\n\r\n");
	ld	hl,#__str_19
	push	hl
	call	_puts
	pop	af
;demo.c:1072: do_quit();
	call	_do_quit
00103$:
;demo.c:1075: pal_load("TWISTER PL5",32,1);
	ld	hl,#0x0001
	push	hl
	ld	a,#0x20
	push	af
	inc	sp
	ld	hl,#__str_20
	push	hl
	call	_pal_load
	pop	af
	pop	af
	inc	sp
;demo.c:1076: memcpy(twister_palette, cur_palette, 32);
	ld	hl,#0x0020
	push	hl
	ld	hl,#_cur_palette
	push	hl
	ld	hl,#_twister_palette
	push	hl
	call	_memcpy
	pop	af
	pop	af
	pop	af
;demo.c:1077: pal_load("LF      PL5",32,1);
	ld	hl,#0x0001
	push	hl
	ld	a,#0x20
	push	af
	inc	sp
	ld	hl,#__str_21
	push	hl
	call	_pal_load
	pop	af
	pop	af
	inc	sp
;demo.c:1078: memcpy(tf_palette, cur_palette, 32);
	ld	hl,#0x0020
	push	hl
	ld	hl,#_cur_palette
	push	hl
	ld	hl,#_tf_palette
	push	hl
	call	_memcpy
	pop	af
	pop	af
	pop	af
;demo.c:1079: pal_load("BOXES   PL5",32,1);
	ld	hl,#0x0001
	push	hl
	ld	a,#0x20
	push	af
	inc	sp
	ld	hl,#__str_22
	push	hl
	call	_pal_load
	pop	af
	pop	af
	inc	sp
;demo.c:1080: memcpy(boxes_palette, cur_palette, 32);
	ld	hl,#0x0020
	push	hl
	ld	hl,#_cur_palette
	push	hl
	ld	hl,#_boxes_palette
	push	hl
	call	_memcpy
	pop	af
	pop	af
	pop	af
;demo.c:1081: pal_load("BULBS   PL5",32,1);
	ld	hl,#0x0001
	push	hl
	ld	a,#0x20
	push	af
	inc	sp
	ld	hl,#__str_23
	push	hl
	call	_pal_load
	pop	af
	pop	af
	inc	sp
;demo.c:1083: scratch_clear();
	call	_scratch_clear
;demo.c:1084: vdp_load_palette(scratch);
	ld	hl,#_scratch
	push	hl
	call	_vdp_load_palette
	pop	af
;demo.c:1086: vdp_set_screen5();
	call	_vdp_set_screen5
;demo.c:1088: pck_load("BULBS   PCK",2431,0x0000,VRAM_0,0);
	ld	hl,#0x0000
	push	hl
	ld	l, #0x01
	push	hl
	ld	l, #0x00
	push	hl
	ld	hl,#0x097F
	push	hl
	ld	hl,#__str_24
	push	hl
	call	_pck_load
	ld	iy,#0x000A
	add	iy,sp
	ld	sp,iy
;demo.c:1090: cmd.size_x = 256;
	ld	hl, #_cmd + 8
	ld	(hl),#0x00
	inc	hl
	ld	(hl),#0x01
;demo.c:1091: cmd.size_y = 212;
	ld	hl, #_cmd + 10
	ld	(hl),#0xD4
	inc	hl
	ld	(hl),#0x00
;demo.c:1092: cmd.data = 0;
;demo.c:1093: cmd.argument = 0x00;
	ld	a,#0x00
	ld	(#_cmd + 12),a
	ld	(#_cmd + 13),a
;demo.c:1094: cmd.command = 0xd0; 
	ld	bc,#_cmd + 14
	ld	a,#0xD0
	ld	(bc),a
;demo.c:1095: cmd.source_x = 0;
	ld	hl,#_cmd
	ld	(hl),#0x00
	inc	hl
	ld	(hl),#0x00
;demo.c:1096: cmd.source_y = 0;
	ld	hl, #_cmd + 2
	ld	(hl),#0x00
	inc	hl
	ld	(hl),#0x00
;demo.c:1097: cmd.dest_x = 0;
	ld	hl, #_cmd + 4
	ld	(hl),#0x00
	inc	hl
	ld	(hl),#0x00
;demo.c:1098: cmd.dest_y = 256;
	ld	hl, #_cmd + 6
	ld	(hl),#0x00
	inc	hl
	ld	(hl),#0x01
;demo.c:1099: vdp_copier(&cmd);
	ld	hl,#_cmd
	push	hl
	call	_vdp_copier
	pop	af
;demo.c:1101: pck_load("TWISTER PCK",4032,0x0000,VRAM_0,0);
	ld	hl,#0x0000
	push	hl
	ld	l, #0x01
	push	hl
	ld	l, #0x00
	push	hl
	ld	hl,#0x0FC0
	push	hl
	ld	hl,#__str_25
	push	hl
	call	_pck_load
	ld	iy,#0x000A
	add	iy,sp
	ld	sp,iy
;demo.c:1103: cmd.size_x = 256;
	ld	hl, #_cmd + 8
	ld	(hl),#0x00
	inc	hl
	ld	(hl),#0x01
;demo.c:1104: cmd.size_y = 212;
	ld	hl, #_cmd + 10
	ld	(hl),#0xD4
	inc	hl
	ld	(hl),#0x00
;demo.c:1105: cmd.data = 0;
;demo.c:1106: cmd.argument = 0x00;
	ld	a,#0x00
	ld	(#_cmd + 12),a
	ld	(#_cmd + 13),a
;demo.c:1107: cmd.command = 0xd0; 
	ld	bc,#_cmd + 14
	ld	a,#0xD0
	ld	(bc),a
;demo.c:1108: cmd.source_x = 0;
	ld	hl,#_cmd
	ld	(hl),#0x00
	inc	hl
	ld	(hl),#0x00
;demo.c:1109: cmd.source_y = 0;
	ld	hl, #_cmd + 2
	ld	(hl),#0x00
	inc	hl
	ld	(hl),#0x00
;demo.c:1110: cmd.dest_x = 0;
	ld	hl, #_cmd + 4
	ld	(hl),#0x00
	inc	hl
	ld	(hl),#0x00
;demo.c:1111: cmd.dest_y = 512;
	ld	hl, #_cmd + 6
	ld	(hl),#0x00
	inc	hl
	ld	(hl),#0x02
;demo.c:1112: vdp_copier(&cmd);
	ld	hl,#_cmd
	push	hl
	call	_vdp_copier
	pop	af
;demo.c:1115: pck_load("BOXES   PCK",1997,0x0000,VRAM_0,0);
	ld	hl,#0x0000
	push	hl
	ld	l, #0x01
	push	hl
	ld	l, #0x00
	push	hl
	ld	hl,#0x07CD
	push	hl
	ld	hl,#__str_26
	push	hl
	call	_pck_load
	ld	iy,#0x000A
	add	iy,sp
	ld	sp,iy
;demo.c:1116: cmd.size_x = 256;
	ld	hl, #_cmd + 8
	ld	(hl),#0x00
	inc	hl
	ld	(hl),#0x01
;demo.c:1117: cmd.size_y = 212;
	ld	hl, #_cmd + 10
	ld	(hl),#0xD4
	inc	hl
	ld	(hl),#0x00
;demo.c:1118: cmd.data = 0;
;demo.c:1119: cmd.argument = 0x00;
	ld	a,#0x00
	ld	(#_cmd + 12),a
	ld	(#_cmd + 13),a
;demo.c:1120: cmd.command = 0xd0; 
	ld	bc,#_cmd + 14
	ld	a,#0xD0
	ld	(bc),a
;demo.c:1121: cmd.source_x = 0;
	ld	hl,#_cmd
	ld	(hl),#0x00
	inc	hl
	ld	(hl),#0x00
;demo.c:1122: cmd.source_y = 0;
	ld	hl, #_cmd + 2
	ld	(hl),#0x00
	inc	hl
	ld	(hl),#0x00
;demo.c:1123: cmd.dest_x = 0;
	ld	hl, #_cmd + 4
	ld	(hl),#0x00
	inc	hl
	ld	(hl),#0x00
;demo.c:1124: cmd.dest_y = 768;
	ld	hl, #_cmd + 6
	ld	(hl),#0x00
	inc	hl
	ld	(hl),#0x03
;demo.c:1125: vdp_copier(&cmd);
	ld	hl,#_cmd
	push	hl
	call	_vdp_copier
	pop	af
;demo.c:1127: scratch_clear();
	call	_scratch_clear
;demo.c:1128: vdp_load_palette(scratch);
	ld	hl,#_scratch
	push	hl
	call	_vdp_load_palette
	pop	af
;demo.c:1130: pck_load("DSSLOGO PCK",2154,0x0000,VRAM_0,0);
	ld	hl,#0x0000
	push	hl
	ld	l, #0x01
	push	hl
	ld	l, #0x00
	push	hl
	ld	hl,#0x086A
	push	hl
	ld	hl,#__str_27
	push	hl
	call	_pck_load
	ld	iy,#0x000A
	add	iy,sp
	ld	sp,iy
;demo.c:1131: pal_load("DSSLOGO PL5",32,0);
	ld	hl,#0x0000
	push	hl
	ld	a,#0x20
	push	af
	inc	sp
	ld	hl,#__str_28
	push	hl
	call	_pal_load
	pop	af
	pop	af
	inc	sp
;demo.c:1133: scratch_clear();
	call	_scratch_clear
;demo.c:1135: vdp_register(9,130); // 50hz,212
	ld	hl,#0x8209
	push	hl
	call	_vdp_register
	pop	af
;demo.c:1137: install_isr(my_isr);
	ld	hl,#_my_isr
	push	hl
	call	_install_isr
	pop	af
;demo.c:1139: while (!quit) {
00111$:
	xor	a,a
	or	a,-1 (ix)
	jp	NZ,00113$
;demo.c:1141: if (vbicount >= scenetimings[timeindex+1]) {
	ld	hl,#_timeindex + 0
	ld	c,(hl)
	inc	c
	sla	c
	ld	a,#<_scenetimings
	add	a,c
	ld	l,a
	ld	a,#>_scenetimings
	adc	a,#0x00
	ld	h,a
	ld	c,(hl)
	inc	hl
	ld	b,(hl)
	ld	a,(#_vbicount+0)
	sub	a,c
	ld	a,(#_vbicount+1)
	sbc	a,b
	jp	M,00105$
;demo.c:1142: sceneindex++;
	ld	iy,#_sceneindex
	inc	0 (iy)
	jr	NZ,00141$
	ld	iy,#_sceneindex
	inc	1 (iy)
00141$:
;demo.c:1143: timeindex+=2;
	ld	hl,#_timeindex
	ld	a,(hl)
	add	a,#0x02
	inc	hl
	dec	hl
	push	bc
	ld	c, a
	inc	hl
	ld	a, (hl)
	ld	b, a
	ld	a, c
	dec	hl
	ld	(hl), a
	ld	a, b
	pop	bc
	adc	a,#0x00
	inc	hl
	ld	(hl),a
00105$:
;demo.c:1146: if (vbicount >= scenetimings[timeindex] && vbicount < scenetimings[timeindex+1]) {
	ld	hl,#_timeindex + 0
	ld	c,(hl)
	ld	hl,#_timeindex + 1
	ld	b,(hl)
	sla	c
	rl	b
	ld	hl,#_scenetimings
	add	hl,bc
	ld	c,(hl)
	inc	hl
	ld	b,(hl)
	ld	a,(#_vbicount+0)
	sub	a,c
	ld	a,(#_vbicount+1)
	sbc	a,b
	jp	M,00107$
	ld	hl,#_timeindex + 0
	ld	c,(hl)
	inc	c
	sla	c
	ld	a,#<_scenetimings
	add	a,c
	ld	l,a
	ld	a,#>_scenetimings
	adc	a,#0x00
	ld	h,a
	ld	c,(hl)
	inc	hl
	ld	b,(hl)
	ld	a,(#_vbicount+0)
	sub	a,c
	ld	iy,#_vbicount
	ld	a,1 (iy)
	sbc	a,b
	jp	P,00107$
;demo.c:1147: waitVB();
		halt 
;demo.c:1148: scenepointers[sceneindex]();
	ld	hl,#_sceneindex + 0
	ld	c,(hl)
	ld	iy,#_sceneindex
	ld	b,1 (iy)
	sla	c
	rl	b
	ld	hl,#_scenepointers
	add	hl,bc
	ld	c,(hl)
	inc	hl
	ld	b,(hl)
	push	bc
	ld	hl,#00146$
	push	hl
	ld	l,c
	ld	h,b
	jp	(hl)
00146$:
	pop	bc
00107$:
;demo.c:1150: if(space())
	ld	hl,#0x0108
	push	hl
	call	_ispressed
	pop	af
	xor	a,a
	or	a,l
	jp	Z,00111$
;demo.c:1151: quit=1;
	ld	-1 (ix),#0x01
	jp	00111$
00113$:
;demo.c:1154: do_quit();
	call	_do_quit
	ld	sp,ix
	pop	ix
	ret
_main_end::
__str_14:
	.ascii "demo init"
	.db 0x0D
	.db 0x0A
	.db 0x0D
	.db 0x0A
	.db 0x00
__str_15:
	.ascii "music init..."
	.db 0x00
__str_16:
	.ascii "done."
	.db 0x0D
	.db 0x0A
	.db 0x00
__str_17:
	.ascii "detecting vdp type..."
	.db 0x0D
	.db 0x0A
	.db 0x0D
	.db 0x0A
	.db 0x00
__str_18:
	.ascii "vdp2 found! setting 50hz..."
	.db 0x0D
	.db 0x0A
	.db 0x0D
	.db 0x0A
	.db 0x00
__str_19:
	.ascii " vdp1 found."
	.db 0x0D
	.db 0x0A
	.ascii "Sorry, this demo requires a VDP2 with 128k for"
	.ascii " VRAM."
	.db 0x0D
	.db 0x0A
	.db 0x0D
	.db 0x0A
	.db 0x00
__str_20:
	.ascii "TWISTER PL5"
	.db 0x00
__str_21:
	.ascii "LF      PL5"
	.db 0x00
__str_22:
	.ascii "BOXES   PL5"
	.db 0x00
__str_23:
	.ascii "BULBS   PL5"
	.db 0x00
__str_24:
	.ascii "BULBS   PCK"
	.db 0x00
__str_25:
	.ascii "TWISTER PCK"
	.db 0x00
__str_26:
	.ascii "BOXES   PCK"
	.db 0x00
__str_27:
	.ascii "DSSLOGO PCK"
	.db 0x00
__str_28:
	.ascii "DSSLOGO PL5"
	.db 0x00
	.area _CODE
	.area _CABS
